   1              		.syntax unified
   2              		.cpu cortex-m3
   3              		.fpu softvfp
   4              		.eabi_attribute 20, 1
   5              		.eabi_attribute 21, 1
   6              		.eabi_attribute 23, 3
   7              		.eabi_attribute 24, 1
   8              		.eabi_attribute 25, 1
   9              		.eabi_attribute 26, 1
  10              		.eabi_attribute 30, 4
  11              		.eabi_attribute 34, 1
  12              		.eabi_attribute 18, 4
  13              		.thumb
  14              		.file	"cc3000_common.c"
  15              		.text
  16              	.Ltext0:
  17              		.cfi_sections	.debug_frame
  18              		.section	.text.__error__,"ax",%progbits
  19              		.align	1
  20              		.global	__error__
  21              		.thumb
  22              		.thumb_func
  24              	__error__:
  25              	.LFB0:
  26              		.file 1 "../libraries/CC3000_Host_Driver/cc3000_common.c"
   1:../libraries/CC3000_Host_Driver/cc3000_common.c **** /*****************************************************************************
   2:../libraries/CC3000_Host_Driver/cc3000_common.c **** *
   3:../libraries/CC3000_Host_Driver/cc3000_common.c **** *  cc3000_common.c.c  - CC3000 Host Driver Implementation.
   4:../libraries/CC3000_Host_Driver/cc3000_common.c **** *  Copyright (C) 2011 Texas Instruments Incorporated - http://www.ti.com/
   5:../libraries/CC3000_Host_Driver/cc3000_common.c **** *
   6:../libraries/CC3000_Host_Driver/cc3000_common.c **** *  Redistribution and use in source and binary forms, with or without
   7:../libraries/CC3000_Host_Driver/cc3000_common.c **** *  modification, are permitted provided that the following conditions
   8:../libraries/CC3000_Host_Driver/cc3000_common.c **** *  are met:
   9:../libraries/CC3000_Host_Driver/cc3000_common.c **** *
  10:../libraries/CC3000_Host_Driver/cc3000_common.c **** *    Redistributions of source code must retain the above copyright
  11:../libraries/CC3000_Host_Driver/cc3000_common.c **** *    notice, this list of conditions and the following disclaimer.
  12:../libraries/CC3000_Host_Driver/cc3000_common.c **** *
  13:../libraries/CC3000_Host_Driver/cc3000_common.c **** *    Redistributions in binary form must reproduce the above copyright
  14:../libraries/CC3000_Host_Driver/cc3000_common.c **** *    notice, this list of conditions and the following disclaimer in the
  15:../libraries/CC3000_Host_Driver/cc3000_common.c **** *    documentation and/or other materials provided with the   
  16:../libraries/CC3000_Host_Driver/cc3000_common.c **** *    distribution.
  17:../libraries/CC3000_Host_Driver/cc3000_common.c **** *
  18:../libraries/CC3000_Host_Driver/cc3000_common.c **** *    Neither the name of Texas Instruments Incorporated nor the names of
  19:../libraries/CC3000_Host_Driver/cc3000_common.c **** *    its contributors may be used to endorse or promote products derived
  20:../libraries/CC3000_Host_Driver/cc3000_common.c **** *    from this software without specific prior written permission.
  21:../libraries/CC3000_Host_Driver/cc3000_common.c **** *
  22:../libraries/CC3000_Host_Driver/cc3000_common.c **** *  THIS SOFTWARE IS PROVIDED BY THE COPYRIGHT HOLDERS AND CONTRIBUTORS 
  23:../libraries/CC3000_Host_Driver/cc3000_common.c **** *  "AS IS" AND ANY EXPRESS OR IMPLIED WARRANTIES, INCLUDING, BUT NOT 
  24:../libraries/CC3000_Host_Driver/cc3000_common.c **** *  LIMITED TO, THE IMPLIED WARRANTIES OF MERCHANTABILITY AND FITNESS FOR
  25:../libraries/CC3000_Host_Driver/cc3000_common.c **** *  A PARTICULAR PURPOSE ARE DISCLAIMED. IN NO EVENT SHALL THE COPYRIGHT 
  26:../libraries/CC3000_Host_Driver/cc3000_common.c **** *  OWNER OR CONTRIBUTORS BE LIABLE FOR ANY DIRECT, INDIRECT, INCIDENTAL, 
  27:../libraries/CC3000_Host_Driver/cc3000_common.c **** *  SPECIAL, EXEMPLARY, OR CONSEQUENTIAL DAMAGES (INCLUDING, BUT NOT 
  28:../libraries/CC3000_Host_Driver/cc3000_common.c **** *  LIMITED TO, PROCUREMENT OF SUBSTITUTE GOODS OR SERVICES; LOSS OF USE,
  29:../libraries/CC3000_Host_Driver/cc3000_common.c **** *  DATA, OR PROFITS; OR BUSINESS INTERRUPTION) HOWEVER CAUSED AND ON ANY
  30:../libraries/CC3000_Host_Driver/cc3000_common.c **** *  THEORY OF LIABILITY, WHETHER IN CONTRACT, STRICT LIABILITY, OR TORT 
  31:../libraries/CC3000_Host_Driver/cc3000_common.c **** *  (INCLUDING NEGLIGENCE OR OTHERWISE) ARISING IN ANY WAY OUT OF THE USE 
  32:../libraries/CC3000_Host_Driver/cc3000_common.c **** *  OF THIS SOFTWARE, EVEN IF ADVISED OF THE POSSIBILITY OF SUCH DAMAGE.
  33:../libraries/CC3000_Host_Driver/cc3000_common.c **** *
  34:../libraries/CC3000_Host_Driver/cc3000_common.c **** *****************************************************************************/
  35:../libraries/CC3000_Host_Driver/cc3000_common.c **** //*****************************************************************************
  36:../libraries/CC3000_Host_Driver/cc3000_common.c **** //
  37:../libraries/CC3000_Host_Driver/cc3000_common.c **** //! \addtogroup common_api
  38:../libraries/CC3000_Host_Driver/cc3000_common.c **** //! @{
  39:../libraries/CC3000_Host_Driver/cc3000_common.c **** //
  40:../libraries/CC3000_Host_Driver/cc3000_common.c **** //*****************************************************************************
  41:../libraries/CC3000_Host_Driver/cc3000_common.c **** /******************************************************************************
  42:../libraries/CC3000_Host_Driver/cc3000_common.c ****  *
  43:../libraries/CC3000_Host_Driver/cc3000_common.c ****  * Include files
  44:../libraries/CC3000_Host_Driver/cc3000_common.c ****  *
  45:../libraries/CC3000_Host_Driver/cc3000_common.c ****  *****************************************************************************/
  46:../libraries/CC3000_Host_Driver/cc3000_common.c **** #include "cc3000_common.h"
  47:../libraries/CC3000_Host_Driver/cc3000_common.c **** #include "socket.h"
  48:../libraries/CC3000_Host_Driver/cc3000_common.c **** #include "wlan.h"
  49:../libraries/CC3000_Host_Driver/cc3000_common.c **** #include "evnt_handler.h"
  50:../libraries/CC3000_Host_Driver/cc3000_common.c **** 
  51:../libraries/CC3000_Host_Driver/cc3000_common.c **** //*****************************************************************************
  52:../libraries/CC3000_Host_Driver/cc3000_common.c **** //
  53:../libraries/CC3000_Host_Driver/cc3000_common.c **** //!  __error__
  54:../libraries/CC3000_Host_Driver/cc3000_common.c **** //!
  55:../libraries/CC3000_Host_Driver/cc3000_common.c **** //!  @param  pcFilename - file name, where error occurred
  56:../libraries/CC3000_Host_Driver/cc3000_common.c **** //!  @param  ulLine     - line number, where error occurred
  57:../libraries/CC3000_Host_Driver/cc3000_common.c **** //!
  58:../libraries/CC3000_Host_Driver/cc3000_common.c **** //!  @return none
  59:../libraries/CC3000_Host_Driver/cc3000_common.c **** //!
  60:../libraries/CC3000_Host_Driver/cc3000_common.c **** //!  @brief stub function for ASSERT macro
  61:../libraries/CC3000_Host_Driver/cc3000_common.c **** //
  62:../libraries/CC3000_Host_Driver/cc3000_common.c **** //*****************************************************************************
  63:../libraries/CC3000_Host_Driver/cc3000_common.c **** void
  64:../libraries/CC3000_Host_Driver/cc3000_common.c **** __error__(char *pcFilename, unsigned long ulLine)
  65:../libraries/CC3000_Host_Driver/cc3000_common.c **** {
  27              		.loc 1 65 0
  28              		.cfi_startproc
  29              		@ args = 0, pretend = 0, frame = 0
  30              		@ frame_needed = 0, uses_anonymous_args = 0
  31              		@ link register save eliminated.
  32              	.LVL0:
  33 0000 7047     		bx	lr
  34              		.cfi_endproc
  35              	.LFE0:
  37              		.section	.text.UINT32_TO_STREAM_f,"ax",%progbits
  38              		.align	1
  39              		.global	UINT32_TO_STREAM_f
  40              		.thumb
  41              		.thumb_func
  43              	UINT32_TO_STREAM_f:
  44              	.LFB1:
  66:../libraries/CC3000_Host_Driver/cc3000_common.c ****     //TODO full up function
  67:../libraries/CC3000_Host_Driver/cc3000_common.c **** }
  68:../libraries/CC3000_Host_Driver/cc3000_common.c **** 
  69:../libraries/CC3000_Host_Driver/cc3000_common.c **** 
  70:../libraries/CC3000_Host_Driver/cc3000_common.c **** 
  71:../libraries/CC3000_Host_Driver/cc3000_common.c **** //*****************************************************************************
  72:../libraries/CC3000_Host_Driver/cc3000_common.c **** //
  73:../libraries/CC3000_Host_Driver/cc3000_common.c **** //!  UINT32_TO_STREAM_f
  74:../libraries/CC3000_Host_Driver/cc3000_common.c **** //!
  75:../libraries/CC3000_Host_Driver/cc3000_common.c **** //!  @param  p       pointer to the new stream
  76:../libraries/CC3000_Host_Driver/cc3000_common.c **** //!  @param  u32     pointer to the 32 bit
  77:../libraries/CC3000_Host_Driver/cc3000_common.c **** //!
  78:../libraries/CC3000_Host_Driver/cc3000_common.c **** //!  @return               pointer to the new stream
  79:../libraries/CC3000_Host_Driver/cc3000_common.c **** //!
  80:../libraries/CC3000_Host_Driver/cc3000_common.c **** //!  @brief                This function is used for copying 32 bit to stream
  81:../libraries/CC3000_Host_Driver/cc3000_common.c **** //!						   while converting to little endian format.
  82:../libraries/CC3000_Host_Driver/cc3000_common.c **** //
  83:../libraries/CC3000_Host_Driver/cc3000_common.c **** //*****************************************************************************
  84:../libraries/CC3000_Host_Driver/cc3000_common.c **** 
  85:../libraries/CC3000_Host_Driver/cc3000_common.c **** unsigned char* UINT32_TO_STREAM_f (unsigned char *p, unsigned long u32)
  86:../libraries/CC3000_Host_Driver/cc3000_common.c **** {
  45              		.loc 1 86 0
  46              		.cfi_startproc
  47              		@ args = 0, pretend = 0, frame = 0
  48              		@ frame_needed = 0, uses_anonymous_args = 0
  49              		@ link register save eliminated.
  50              	.LVL1:
  87:../libraries/CC3000_Host_Driver/cc3000_common.c **** 	*(p)++ = (unsigned char)(u32);
  51              		.loc 1 87 0
  52 0000 0170     		strb	r1, [r0, #0]
  53              	.LVL2:
  88:../libraries/CC3000_Host_Driver/cc3000_common.c **** 	*(p)++ = (unsigned char)((u32) >> 8);
  54              		.loc 1 88 0
  55 0002 0B0A     		lsrs	r3, r1, #8
  89:../libraries/CC3000_Host_Driver/cc3000_common.c **** 	*(p)++ = (unsigned char)((u32) >> 16);
  56              		.loc 1 89 0
  57 0004 0A0C     		lsrs	r2, r1, #16
  90:../libraries/CC3000_Host_Driver/cc3000_common.c **** 	*(p)++ = (unsigned char)((u32) >> 24);
  58              		.loc 1 90 0
  59 0006 090E     		lsrs	r1, r1, #24
  60              	.LVL3:
  88:../libraries/CC3000_Host_Driver/cc3000_common.c **** 	*(p)++ = (unsigned char)((u32) >> 8);
  61              		.loc 1 88 0
  62 0008 4370     		strb	r3, [r0, #1]
  63              	.LVL4:
  89:../libraries/CC3000_Host_Driver/cc3000_common.c **** 	*(p)++ = (unsigned char)((u32) >> 16);
  64              		.loc 1 89 0
  65 000a 8270     		strb	r2, [r0, #2]
  66              	.LVL5:
  67              		.loc 1 90 0
  68 000c C170     		strb	r1, [r0, #3]
  69              	.LVL6:
  91:../libraries/CC3000_Host_Driver/cc3000_common.c **** 	return p;
  92:../libraries/CC3000_Host_Driver/cc3000_common.c **** }
  70              		.loc 1 92 0
  71 000e 0430     		adds	r0, r0, #4
  72              	.LVL7:
  73 0010 7047     		bx	lr
  74              		.cfi_endproc
  75              	.LFE1:
  77              		.section	.text.UINT16_TO_STREAM_f,"ax",%progbits
  78              		.align	1
  79              		.global	UINT16_TO_STREAM_f
  80              		.thumb
  81              		.thumb_func
  83              	UINT16_TO_STREAM_f:
  84              	.LFB2:
  93:../libraries/CC3000_Host_Driver/cc3000_common.c **** 
  94:../libraries/CC3000_Host_Driver/cc3000_common.c **** //*****************************************************************************
  95:../libraries/CC3000_Host_Driver/cc3000_common.c **** //
  96:../libraries/CC3000_Host_Driver/cc3000_common.c **** //!  UINT16_TO_STREAM_f
  97:../libraries/CC3000_Host_Driver/cc3000_common.c **** //!
  98:../libraries/CC3000_Host_Driver/cc3000_common.c **** //!  @param  p       pointer to the new stream
  99:../libraries/CC3000_Host_Driver/cc3000_common.c **** //!  @param  u32     pointer to the 16 bit
 100:../libraries/CC3000_Host_Driver/cc3000_common.c **** //!
 101:../libraries/CC3000_Host_Driver/cc3000_common.c **** //!  @return               pointer to the new stream
 102:../libraries/CC3000_Host_Driver/cc3000_common.c **** //!
 103:../libraries/CC3000_Host_Driver/cc3000_common.c **** //!  @brief               This function is used for copying 16 bit to stream
 104:../libraries/CC3000_Host_Driver/cc3000_common.c **** //!                       while converting to little endian format.
 105:../libraries/CC3000_Host_Driver/cc3000_common.c **** //
 106:../libraries/CC3000_Host_Driver/cc3000_common.c **** //*****************************************************************************
 107:../libraries/CC3000_Host_Driver/cc3000_common.c **** 
 108:../libraries/CC3000_Host_Driver/cc3000_common.c **** unsigned char* UINT16_TO_STREAM_f (unsigned char *p, unsigned short u16)
 109:../libraries/CC3000_Host_Driver/cc3000_common.c **** {
  85              		.loc 1 109 0
  86              		.cfi_startproc
  87              		@ args = 0, pretend = 0, frame = 0
  88              		@ frame_needed = 0, uses_anonymous_args = 0
  89              		@ link register save eliminated.
  90              	.LVL8:
 110:../libraries/CC3000_Host_Driver/cc3000_common.c **** 	*(p)++ = (unsigned char)(u16);
  91              		.loc 1 110 0
  92 0000 0170     		strb	r1, [r0, #0]
  93              	.LVL9:
 111:../libraries/CC3000_Host_Driver/cc3000_common.c **** 	*(p)++ = (unsigned char)((u16) >> 8);
  94              		.loc 1 111 0
  95 0002 090A     		lsrs	r1, r1, #8
  96              	.LVL10:
  97 0004 4170     		strb	r1, [r0, #1]
  98              	.LVL11:
 112:../libraries/CC3000_Host_Driver/cc3000_common.c **** 	return p;
 113:../libraries/CC3000_Host_Driver/cc3000_common.c **** }
  99              		.loc 1 113 0
 100 0006 0230     		adds	r0, r0, #2
 101              	.LVL12:
 102 0008 7047     		bx	lr
 103              		.cfi_endproc
 104              	.LFE2:
 106              		.section	.text.STREAM_TO_UINT16_f,"ax",%progbits
 107              		.align	1
 108              		.global	STREAM_TO_UINT16_f
 109              		.thumb
 110              		.thumb_func
 112              	STREAM_TO_UINT16_f:
 113              	.LFB3:
 114:../libraries/CC3000_Host_Driver/cc3000_common.c **** 
 115:../libraries/CC3000_Host_Driver/cc3000_common.c **** //*****************************************************************************
 116:../libraries/CC3000_Host_Driver/cc3000_common.c **** //
 117:../libraries/CC3000_Host_Driver/cc3000_common.c **** //!  STREAM_TO_UINT16_f
 118:../libraries/CC3000_Host_Driver/cc3000_common.c **** //!
 119:../libraries/CC3000_Host_Driver/cc3000_common.c **** //!  @param  p          pointer to the stream
 120:../libraries/CC3000_Host_Driver/cc3000_common.c **** //!  @param  offset     offset in the stream
 121:../libraries/CC3000_Host_Driver/cc3000_common.c **** //!
 122:../libraries/CC3000_Host_Driver/cc3000_common.c **** //!  @return               pointer to the new 16 bit
 123:../libraries/CC3000_Host_Driver/cc3000_common.c **** //!
 124:../libraries/CC3000_Host_Driver/cc3000_common.c **** //!  @brief               This function is used for copying received stream to
 125:../libraries/CC3000_Host_Driver/cc3000_common.c **** //!                       16 bit in little endian format.
 126:../libraries/CC3000_Host_Driver/cc3000_common.c **** //
 127:../libraries/CC3000_Host_Driver/cc3000_common.c **** //*****************************************************************************
 128:../libraries/CC3000_Host_Driver/cc3000_common.c **** 
 129:../libraries/CC3000_Host_Driver/cc3000_common.c **** unsigned short STREAM_TO_UINT16_f(char* p, unsigned short offset)
 130:../libraries/CC3000_Host_Driver/cc3000_common.c **** {
 114              		.loc 1 130 0
 115              		.cfi_startproc
 116              		@ args = 0, pretend = 0, frame = 0
 117              		@ frame_needed = 0, uses_anonymous_args = 0
 118              		@ link register save eliminated.
 119              	.LVL13:
 131:../libraries/CC3000_Host_Driver/cc3000_common.c ****         return (unsigned short)((unsigned short)((unsigned short)
 132:../libraries/CC3000_Host_Driver/cc3000_common.c **** 								(*(p + offset + 1)) << 8) + (unsigned short)(*(p + offset)));
 120              		.loc 1 132 0
 121 0000 4318     		adds	r3, r0, r1
 131:../libraries/CC3000_Host_Driver/cc3000_common.c ****         return (unsigned short)((unsigned short)((unsigned short)
 122              		.loc 1 131 0
 123 0002 5A78     		ldrb	r2, [r3, #1]	@ zero_extendqisi2
 124 0004 405C     		ldrb	r0, [r0, r1]	@ zero_extendqisi2
 125              	.LVL14:
 126 0006 00EB0221 		add	r1, r0, r2, lsl #8
 127              	.LVL15:
 133:../libraries/CC3000_Host_Driver/cc3000_common.c **** }
 128              		.loc 1 133 0
 129 000a 88B2     		uxth	r0, r1
 130 000c 7047     		bx	lr
 131              		.cfi_endproc
 132              	.LFE3:
 134              		.section	.text.STREAM_TO_UINT32_f,"ax",%progbits
 135              		.align	1
 136              		.global	STREAM_TO_UINT32_f
 137              		.thumb
 138              		.thumb_func
 140              	STREAM_TO_UINT32_f:
 141              	.LFB4:
 134:../libraries/CC3000_Host_Driver/cc3000_common.c **** 
 135:../libraries/CC3000_Host_Driver/cc3000_common.c **** //*****************************************************************************
 136:../libraries/CC3000_Host_Driver/cc3000_common.c **** //
 137:../libraries/CC3000_Host_Driver/cc3000_common.c **** //!  STREAM_TO_UINT32_f
 138:../libraries/CC3000_Host_Driver/cc3000_common.c **** //!
 139:../libraries/CC3000_Host_Driver/cc3000_common.c **** //!  @param  p          pointer to the stream
 140:../libraries/CC3000_Host_Driver/cc3000_common.c **** //!  @param  offset     offset in the stream
 141:../libraries/CC3000_Host_Driver/cc3000_common.c **** //!
 142:../libraries/CC3000_Host_Driver/cc3000_common.c **** //!  @return               pointer to the new 32 bit
 143:../libraries/CC3000_Host_Driver/cc3000_common.c **** //!
 144:../libraries/CC3000_Host_Driver/cc3000_common.c **** //!  @brief               This function is used for copying received stream to
 145:../libraries/CC3000_Host_Driver/cc3000_common.c **** //!                       32 bit in little endian format.
 146:../libraries/CC3000_Host_Driver/cc3000_common.c **** //
 147:../libraries/CC3000_Host_Driver/cc3000_common.c **** //*****************************************************************************
 148:../libraries/CC3000_Host_Driver/cc3000_common.c **** 
 149:../libraries/CC3000_Host_Driver/cc3000_common.c **** unsigned long STREAM_TO_UINT32_f(char* p, unsigned short offset)
 150:../libraries/CC3000_Host_Driver/cc3000_common.c **** {
 142              		.loc 1 150 0
 143              		.cfi_startproc
 144              		@ args = 0, pretend = 0, frame = 0
 145              		@ frame_needed = 0, uses_anonymous_args = 0
 146              	.LVL16:
 147 0000 10B5     		push	{r4, lr}
 148              	.LCFI0:
 149              		.cfi_def_cfa_offset 8
 150              		.cfi_offset 4, -8
 151              		.cfi_offset 14, -4
 151:../libraries/CC3000_Host_Driver/cc3000_common.c ****         return (unsigned long)((unsigned long)((unsigned long)
 152:../libraries/CC3000_Host_Driver/cc3000_common.c **** 							 (*(p + offset + 3)) << 24) + (unsigned long)((unsigned long)
 152              		.loc 1 152 0
 153 0002 4318     		adds	r3, r0, r1
 154 0004 9A78     		ldrb	r2, [r3, #2]	@ zero_extendqisi2
 151:../libraries/CC3000_Host_Driver/cc3000_common.c ****         return (unsigned long)((unsigned long)((unsigned long)
 155              		.loc 1 151 0
 156 0006 DC78     		ldrb	r4, [r3, #3]	@ zero_extendqisi2
 153:../libraries/CC3000_Host_Driver/cc3000_common.c **** 							 (*(p + offset + 2)) << 16) + (unsigned long)((unsigned long)
 154:../libraries/CC3000_Host_Driver/cc3000_common.c **** 							 (*(p + offset + 1)) << 8) + (unsigned long)(*(p + offset)));
 157              		.loc 1 154 0
 158 0008 415C     		ldrb	r1, [r0, r1]	@ zero_extendqisi2
 159              	.LVL17:
 152:../libraries/CC3000_Host_Driver/cc3000_common.c **** 							 (*(p + offset + 3)) << 24) + (unsigned long)((unsigned long)
 160              		.loc 1 152 0
 161 000a 1204     		lsls	r2, r2, #16
 162 000c 02EB0462 		add	r2, r2, r4, lsl #24
 153:../libraries/CC3000_Host_Driver/cc3000_common.c **** 							 (*(p + offset + 2)) << 16) + (unsigned long)((unsigned long)
 163              		.loc 1 153 0
 164 0010 5878     		ldrb	r0, [r3, #1]	@ zero_extendqisi2
 165              	.LVL18:
 166 0012 5218     		adds	r2, r2, r1
 155:../libraries/CC3000_Host_Driver/cc3000_common.c **** }
 167              		.loc 1 155 0
 168 0014 02EB0020 		add	r0, r2, r0, lsl #8
 169 0018 10BD     		pop	{r4, pc}
 170              		.cfi_endproc
 171              	.LFE4:
 173              		.text
 174              	.Letext0: