   1              		.syntax unified
   2              		.cpu cortex-m3
   3              		.fpu softvfp
   4              		.eabi_attribute 20, 1
   5              		.eabi_attribute 21, 1
   6              		.eabi_attribute 23, 3
   7              		.eabi_attribute 24, 1
   8              		.eabi_attribute 25, 1
   9              		.eabi_attribute 26, 1
  10              		.eabi_attribute 30, 4
  11              		.eabi_attribute 34, 1
  12              		.eabi_attribute 18, 4
  13              		.thumb
  14              		.file	"hci.c"
  15              		.text
  16              	.Ltext0:
  17              		.cfi_sections	.debug_frame
  18              		.section	.text.hci_command_send,"ax",%progbits
  19              		.align	1
  20              		.global	hci_command_send
  21              		.thumb
  22              		.thumb_func
  24              	hci_command_send:
  25              	.LFB56:
  26              		.file 1 "../libraries/CC3000_Host_Driver/hci.c"
   1:../libraries/CC3000_Host_Driver/hci.c **** /*****************************************************************************
   2:../libraries/CC3000_Host_Driver/hci.c **** *
   3:../libraries/CC3000_Host_Driver/hci.c **** *  hci.c  - CC3000 Host Driver Implementation.
   4:../libraries/CC3000_Host_Driver/hci.c **** *  Copyright (C) 2011 Texas Instruments Incorporated - http://www.ti.com/
   5:../libraries/CC3000_Host_Driver/hci.c **** *
   6:../libraries/CC3000_Host_Driver/hci.c **** *  Redistribution and use in source and binary forms, with or without
   7:../libraries/CC3000_Host_Driver/hci.c **** *  modification, are permitted provided that the following conditions
   8:../libraries/CC3000_Host_Driver/hci.c **** *  are met:
   9:../libraries/CC3000_Host_Driver/hci.c **** *
  10:../libraries/CC3000_Host_Driver/hci.c **** *    Redistributions of source code must retain the above copyright
  11:../libraries/CC3000_Host_Driver/hci.c **** *    notice, this list of conditions and the following disclaimer.
  12:../libraries/CC3000_Host_Driver/hci.c **** *
  13:../libraries/CC3000_Host_Driver/hci.c **** *    Redistributions in binary form must reproduce the above copyright
  14:../libraries/CC3000_Host_Driver/hci.c **** *    notice, this list of conditions and the following disclaimer in the
  15:../libraries/CC3000_Host_Driver/hci.c **** *    documentation and/or other materials provided with the   
  16:../libraries/CC3000_Host_Driver/hci.c **** *    distribution.
  17:../libraries/CC3000_Host_Driver/hci.c **** *
  18:../libraries/CC3000_Host_Driver/hci.c **** *    Neither the name of Texas Instruments Incorporated nor the names of
  19:../libraries/CC3000_Host_Driver/hci.c **** *    its contributors may be used to endorse or promote products derived
  20:../libraries/CC3000_Host_Driver/hci.c **** *    from this software without specific prior written permission.
  21:../libraries/CC3000_Host_Driver/hci.c **** *
  22:../libraries/CC3000_Host_Driver/hci.c **** *  THIS SOFTWARE IS PROVIDED BY THE COPYRIGHT HOLDERS AND CONTRIBUTORS 
  23:../libraries/CC3000_Host_Driver/hci.c **** *  "AS IS" AND ANY EXPRESS OR IMPLIED WARRANTIES, INCLUDING, BUT NOT 
  24:../libraries/CC3000_Host_Driver/hci.c **** *  LIMITED TO, THE IMPLIED WARRANTIES OF MERCHANTABILITY AND FITNESS FOR
  25:../libraries/CC3000_Host_Driver/hci.c **** *  A PARTICULAR PURPOSE ARE DISCLAIMED. IN NO EVENT SHALL THE COPYRIGHT 
  26:../libraries/CC3000_Host_Driver/hci.c **** *  OWNER OR CONTRIBUTORS BE LIABLE FOR ANY DIRECT, INDIRECT, INCIDENTAL, 
  27:../libraries/CC3000_Host_Driver/hci.c **** *  SPECIAL, EXEMPLARY, OR CONSEQUENTIAL DAMAGES (INCLUDING, BUT NOT 
  28:../libraries/CC3000_Host_Driver/hci.c **** *  LIMITED TO, PROCUREMENT OF SUBSTITUTE GOODS OR SERVICES; LOSS OF USE,
  29:../libraries/CC3000_Host_Driver/hci.c **** *  DATA, OR PROFITS; OR BUSINESS INTERRUPTION) HOWEVER CAUSED AND ON ANY
  30:../libraries/CC3000_Host_Driver/hci.c **** *  THEORY OF LIABILITY, WHETHER IN CONTRACT, STRICT LIABILITY, OR TORT 
  31:../libraries/CC3000_Host_Driver/hci.c **** *  (INCLUDING NEGLIGENCE OR OTHERWISE) ARISING IN ANY WAY OUT OF THE USE 
  32:../libraries/CC3000_Host_Driver/hci.c **** *  OF THIS SOFTWARE, EVEN IF ADVISED OF THE POSSIBILITY OF SUCH DAMAGE.
  33:../libraries/CC3000_Host_Driver/hci.c **** *
  34:../libraries/CC3000_Host_Driver/hci.c **** *****************************************************************************/
  35:../libraries/CC3000_Host_Driver/hci.c **** 
  36:../libraries/CC3000_Host_Driver/hci.c **** //*****************************************************************************
  37:../libraries/CC3000_Host_Driver/hci.c **** //
  38:../libraries/CC3000_Host_Driver/hci.c **** //! \addtogroup hci_app
  39:../libraries/CC3000_Host_Driver/hci.c **** //! @{
  40:../libraries/CC3000_Host_Driver/hci.c **** //
  41:../libraries/CC3000_Host_Driver/hci.c **** //*****************************************************************************
  42:../libraries/CC3000_Host_Driver/hci.c **** 
  43:../libraries/CC3000_Host_Driver/hci.c **** #include "cc3000_common.h"
  44:../libraries/CC3000_Host_Driver/hci.c **** #include "hci.h"
  45:../libraries/CC3000_Host_Driver/hci.c **** #include "spi.h"
  46:../libraries/CC3000_Host_Driver/hci.c **** #include "evnt_handler.h"
  47:../libraries/CC3000_Host_Driver/hci.c **** #include "wlan.h"
  48:../libraries/CC3000_Host_Driver/hci.c **** 
  49:../libraries/CC3000_Host_Driver/hci.c **** #define SL_PATCH_PORTION_SIZE		(1000)
  50:../libraries/CC3000_Host_Driver/hci.c **** 
  51:../libraries/CC3000_Host_Driver/hci.c **** 
  52:../libraries/CC3000_Host_Driver/hci.c **** //*****************************************************************************
  53:../libraries/CC3000_Host_Driver/hci.c **** //
  54:../libraries/CC3000_Host_Driver/hci.c **** //!  hci_command_send
  55:../libraries/CC3000_Host_Driver/hci.c **** //!
  56:../libraries/CC3000_Host_Driver/hci.c **** //!  @param  usOpcode     command operation code
  57:../libraries/CC3000_Host_Driver/hci.c **** //!  @param  pucBuff      pointer to the command's arguments buffer
  58:../libraries/CC3000_Host_Driver/hci.c **** //!  @param  ucArgsLength length of the arguments
  59:../libraries/CC3000_Host_Driver/hci.c **** //!
  60:../libraries/CC3000_Host_Driver/hci.c **** //!  @return              none
  61:../libraries/CC3000_Host_Driver/hci.c **** //!
  62:../libraries/CC3000_Host_Driver/hci.c **** //!  @brief               Initiate an HCI command.
  63:../libraries/CC3000_Host_Driver/hci.c **** //
  64:../libraries/CC3000_Host_Driver/hci.c **** //*****************************************************************************
  65:../libraries/CC3000_Host_Driver/hci.c **** unsigned short 
  66:../libraries/CC3000_Host_Driver/hci.c **** hci_command_send(unsigned short usOpcode, unsigned char *pucBuff,
  67:../libraries/CC3000_Host_Driver/hci.c ****                      unsigned char ucArgsLength)
  68:../libraries/CC3000_Host_Driver/hci.c **** { 
  27              		.loc 1 68 0
  28              		.cfi_startproc
  29              		@ args = 0, pretend = 0, frame = 0
  30              		@ frame_needed = 0, uses_anonymous_args = 0
  31              	.LVL0:
  32 0000 38B5     		push	{r3, r4, r5, lr}
  33              	.LCFI0:
  34              		.cfi_def_cfa_offset 16
  35              		.cfi_offset 3, -16
  36              		.cfi_offset 4, -12
  37              		.cfi_offset 5, -8
  38              		.cfi_offset 14, -4
  39              		.loc 1 68 0
  40 0002 0346     		mov	r3, r0
  41 0004 1546     		mov	r5, r2
  69:../libraries/CC3000_Host_Driver/hci.c **** 	unsigned char *stream;
  70:../libraries/CC3000_Host_Driver/hci.c **** 	
  71:../libraries/CC3000_Host_Driver/hci.c **** 	stream = (pucBuff + SPI_HEADER_SIZE);
  72:../libraries/CC3000_Host_Driver/hci.c **** 	
  73:../libraries/CC3000_Host_Driver/hci.c **** 	UINT8_TO_STREAM(stream, HCI_TYPE_CMND);
  42              		.loc 1 73 0
  43 0006 0122     		movs	r2, #1
  44              	.LVL1:
  45 0008 4A71     		strb	r2, [r1, #5]
  68:../libraries/CC3000_Host_Driver/hci.c **** { 
  46              		.loc 1 68 0
  47 000a 0C46     		mov	r4, r1
  74:../libraries/CC3000_Host_Driver/hci.c **** 	stream = UINT16_TO_STREAM(stream, usOpcode);
  48              		.loc 1 74 0
  49 000c 881D     		adds	r0, r1, #6
  50              	.LVL2:
  51 000e 1946     		mov	r1, r3
  52              	.LVL3:
  53 0010 FFF7FEFF 		bl	UINT16_TO_STREAM_f
  54              	.LVL4:
  75:../libraries/CC3000_Host_Driver/hci.c **** 	UINT8_TO_STREAM(stream, ucArgsLength);
  76:../libraries/CC3000_Host_Driver/hci.c **** 	
  77:../libraries/CC3000_Host_Driver/hci.c **** 	//Update the opcode of the event we will be waiting for
  78:../libraries/CC3000_Host_Driver/hci.c **** 	SpiWrite(pucBuff, ucArgsLength + SIMPLE_LINK_HCI_CMND_HEADER_SIZE);
  55              		.loc 1 78 0
  56 0014 291D     		adds	r1, r5, #4
  75:../libraries/CC3000_Host_Driver/hci.c **** 	UINT8_TO_STREAM(stream, ucArgsLength);
  57              		.loc 1 75 0
  58 0016 0570     		strb	r5, [r0, #0]
  59              	.LVL5:
  60              		.loc 1 78 0
  61 0018 2046     		mov	r0, r4
  62              	.LVL6:
  63 001a FFF7FEFF 		bl	SpiWrite
  64              	.LVL7:
  79:../libraries/CC3000_Host_Driver/hci.c **** 	
  80:../libraries/CC3000_Host_Driver/hci.c **** 	return(0);
  81:../libraries/CC3000_Host_Driver/hci.c **** }
  65              		.loc 1 81 0
  66 001e 0020     		movs	r0, #0
  67 0020 38BD     		pop	{r3, r4, r5, pc}
  68              		.cfi_endproc
  69              	.LFE56:
  71              		.section	.text.hci_data_send,"ax",%progbits
  72              		.align	1
  73              		.global	hci_data_send
  74              		.thumb
  75              		.thumb_func
  77              	hci_data_send:
  78              	.LFB57:
  82:../libraries/CC3000_Host_Driver/hci.c **** 
  83:../libraries/CC3000_Host_Driver/hci.c **** //*****************************************************************************
  84:../libraries/CC3000_Host_Driver/hci.c **** //
  85:../libraries/CC3000_Host_Driver/hci.c **** //!  hci_data_send
  86:../libraries/CC3000_Host_Driver/hci.c **** //!
  87:../libraries/CC3000_Host_Driver/hci.c **** //!  @param  usOpcode        command operation code
  88:../libraries/CC3000_Host_Driver/hci.c **** //!	 @param  ucArgs					 pointer to the command's arguments buffer
  89:../libraries/CC3000_Host_Driver/hci.c **** //!  @param  usArgsLength    length of the arguments
  90:../libraries/CC3000_Host_Driver/hci.c **** //!  @param  ucTail          pointer to the data buffer
  91:../libraries/CC3000_Host_Driver/hci.c **** //!  @param  usTailLength    buffer length
  92:../libraries/CC3000_Host_Driver/hci.c **** //!
  93:../libraries/CC3000_Host_Driver/hci.c **** //!  @return none
  94:../libraries/CC3000_Host_Driver/hci.c **** //!
  95:../libraries/CC3000_Host_Driver/hci.c **** //!  @brief              Initiate an HCI data write operation
  96:../libraries/CC3000_Host_Driver/hci.c **** //
  97:../libraries/CC3000_Host_Driver/hci.c **** //*****************************************************************************
  98:../libraries/CC3000_Host_Driver/hci.c **** long
  99:../libraries/CC3000_Host_Driver/hci.c **** hci_data_send(unsigned char ucOpcode, 
 100:../libraries/CC3000_Host_Driver/hci.c **** 							unsigned char *ucArgs,
 101:../libraries/CC3000_Host_Driver/hci.c **** 							unsigned short usArgsLength, 
 102:../libraries/CC3000_Host_Driver/hci.c **** 							unsigned short usDataLength,
 103:../libraries/CC3000_Host_Driver/hci.c **** 							const unsigned char *ucTail,
 104:../libraries/CC3000_Host_Driver/hci.c **** 							unsigned short usTailLength)
 105:../libraries/CC3000_Host_Driver/hci.c **** {
  79              		.loc 1 105 0
  80              		.cfi_startproc
  81              		@ args = 8, pretend = 0, frame = 0
  82              		@ frame_needed = 0, uses_anonymous_args = 0
  83              	.LVL8:
  84 0000 38B5     		push	{r3, r4, r5, lr}
  85              	.LCFI1:
  86              		.cfi_def_cfa_offset 16
  87              		.cfi_offset 3, -16
  88              		.cfi_offset 4, -12
  89              		.cfi_offset 5, -8
  90              		.cfi_offset 14, -4
 106:../libraries/CC3000_Host_Driver/hci.c **** 	unsigned char *stream;
 107:../libraries/CC3000_Host_Driver/hci.c **** 	
 108:../libraries/CC3000_Host_Driver/hci.c **** 	stream = ((ucArgs) + SPI_HEADER_SIZE);
 109:../libraries/CC3000_Host_Driver/hci.c **** 	
 110:../libraries/CC3000_Host_Driver/hci.c **** 	UINT8_TO_STREAM(stream, HCI_TYPE_DATA);
 111:../libraries/CC3000_Host_Driver/hci.c **** 	UINT8_TO_STREAM(stream, ucOpcode);
 112:../libraries/CC3000_Host_Driver/hci.c **** 	UINT8_TO_STREAM(stream, usArgsLength);
 113:../libraries/CC3000_Host_Driver/hci.c **** 	stream = UINT16_TO_STREAM(stream, usArgsLength + usDataLength + usTailLength);
  91              		.loc 1 113 0
  92 0002 BDF81450 		ldrh	r5, [sp, #20]
 105:../libraries/CC3000_Host_Driver/hci.c **** {
  93              		.loc 1 105 0
  94 0006 0C46     		mov	r4, r1
  95              	.LVL9:
  96              		.loc 1 113 0
  97 0008 9B18     		adds	r3, r3, r2
  98              	.LVL10:
 111:../libraries/CC3000_Host_Driver/hci.c **** 	UINT8_TO_STREAM(stream, ucOpcode);
  99              		.loc 1 111 0
 100 000a A071     		strb	r0, [r4, #6]
 101              		.loc 1 113 0
 102 000c E818     		adds	r0, r5, r3
 103              	.LVL11:
 104 000e 85B2     		uxth	r5, r0
 110:../libraries/CC3000_Host_Driver/hci.c **** 	UINT8_TO_STREAM(stream, HCI_TYPE_DATA);
 105              		.loc 1 110 0
 106 0010 0221     		movs	r1, #2
 107              	.LVL12:
 108 0012 6171     		strb	r1, [r4, #5]
 109              	.LVL13:
 112:../libraries/CC3000_Host_Driver/hci.c **** 	UINT8_TO_STREAM(stream, usArgsLength);
 110              		.loc 1 112 0
 111 0014 E271     		strb	r2, [r4, #7]
 112              	.LVL14:
 113              		.loc 1 113 0
 114 0016 2946     		mov	r1, r5
 115 0018 04F10800 		add	r0, r4, #8
 116              	.LVL15:
 117 001c FFF7FEFF 		bl	UINT16_TO_STREAM_f
 118              	.LVL16:
 114:../libraries/CC3000_Host_Driver/hci.c **** 	
 115:../libraries/CC3000_Host_Driver/hci.c **** 	// Send the packet over the SPI
 116:../libraries/CC3000_Host_Driver/hci.c **** 	SpiWrite(ucArgs, SIMPLE_LINK_HCI_DATA_HEADER_SIZE + usArgsLength + usDataLength + usTailLength);
 119              		.loc 1 116 0
 120 0020 6A1D     		adds	r2, r5, #5
 121 0022 2046     		mov	r0, r4
 122 0024 91B2     		uxth	r1, r2
 123 0026 FFF7FEFF 		bl	SpiWrite
 124              	.LVL17:
 117:../libraries/CC3000_Host_Driver/hci.c **** 	
 118:../libraries/CC3000_Host_Driver/hci.c **** 	return(ESUCCESS);
 119:../libraries/CC3000_Host_Driver/hci.c **** }
 125              		.loc 1 119 0
 126 002a 0020     		movs	r0, #0
 127 002c 38BD     		pop	{r3, r4, r5, pc}
 128              		.cfi_endproc
 129              	.LFE57:
 131              		.section	.text.hci_data_command_send,"ax",%progbits
 132              		.align	1
 133              		.global	hci_data_command_send
 134              		.thumb
 135              		.thumb_func
 137              	hci_data_command_send:
 138              	.LFB58:
 120:../libraries/CC3000_Host_Driver/hci.c **** 
 121:../libraries/CC3000_Host_Driver/hci.c **** 
 122:../libraries/CC3000_Host_Driver/hci.c **** //*****************************************************************************
 123:../libraries/CC3000_Host_Driver/hci.c **** //
 124:../libraries/CC3000_Host_Driver/hci.c **** //!  hci_data_command_send
 125:../libraries/CC3000_Host_Driver/hci.c **** //!
 126:../libraries/CC3000_Host_Driver/hci.c **** //!  @param  usOpcode      command operation code
 127:../libraries/CC3000_Host_Driver/hci.c **** //!  @param  pucBuff       pointer to the data buffer
 128:../libraries/CC3000_Host_Driver/hci.c **** //!  @param  ucArgsLength  arguments length
 129:../libraries/CC3000_Host_Driver/hci.c **** //!  @param  ucDataLength  data length
 130:../libraries/CC3000_Host_Driver/hci.c **** //!
 131:../libraries/CC3000_Host_Driver/hci.c **** //!  @return none
 132:../libraries/CC3000_Host_Driver/hci.c **** //!
 133:../libraries/CC3000_Host_Driver/hci.c **** //!  @brief              Prepeare HCI header and initiate an HCI data write operation
 134:../libraries/CC3000_Host_Driver/hci.c **** //
 135:../libraries/CC3000_Host_Driver/hci.c **** //*****************************************************************************
 136:../libraries/CC3000_Host_Driver/hci.c **** void hci_data_command_send(unsigned short usOpcode, unsigned char *pucBuff,
 137:../libraries/CC3000_Host_Driver/hci.c ****                      unsigned char ucArgsLength,unsigned short ucDataLength)
 138:../libraries/CC3000_Host_Driver/hci.c **** { 
 139              		.loc 1 138 0
 140              		.cfi_startproc
 141              		@ args = 0, pretend = 0, frame = 0
 142              		@ frame_needed = 0, uses_anonymous_args = 0
 143              	.LVL18:
 144 0000 38B5     		push	{r3, r4, r5, lr}
 145              	.LCFI2:
 146              		.cfi_def_cfa_offset 16
 147              		.cfi_offset 3, -16
 148              		.cfi_offset 4, -12
 149              		.cfi_offset 5, -8
 150              		.cfi_offset 14, -4
 139:../libraries/CC3000_Host_Driver/hci.c ****  	unsigned char *stream = (pucBuff + SPI_HEADER_SIZE);
 140:../libraries/CC3000_Host_Driver/hci.c **** 	
 141:../libraries/CC3000_Host_Driver/hci.c **** 	UINT8_TO_STREAM(stream, HCI_TYPE_DATA);
 142:../libraries/CC3000_Host_Driver/hci.c **** 	UINT8_TO_STREAM(stream, usOpcode);
 143:../libraries/CC3000_Host_Driver/hci.c **** 	UINT8_TO_STREAM(stream, ucArgsLength);
 144:../libraries/CC3000_Host_Driver/hci.c **** 	stream = UINT16_TO_STREAM(stream, ucArgsLength + ucDataLength);
 151              		.loc 1 144 0
 152 0002 9B18     		adds	r3, r3, r2
 153              	.LVL19:
 138:../libraries/CC3000_Host_Driver/hci.c **** { 
 154              		.loc 1 138 0
 155 0004 0C46     		mov	r4, r1
 156              	.LVL20:
 157              		.loc 1 144 0
 158 0006 9DB2     		uxth	r5, r3
 141:../libraries/CC3000_Host_Driver/hci.c **** 	UINT8_TO_STREAM(stream, HCI_TYPE_DATA);
 159              		.loc 1 141 0
 160 0008 0221     		movs	r1, #2
 161              	.LVL21:
 162 000a 6171     		strb	r1, [r4, #5]
 163              	.LVL22:
 142:../libraries/CC3000_Host_Driver/hci.c **** 	UINT8_TO_STREAM(stream, usOpcode);
 164              		.loc 1 142 0
 165 000c A071     		strb	r0, [r4, #6]
 166              	.LVL23:
 143:../libraries/CC3000_Host_Driver/hci.c **** 	UINT8_TO_STREAM(stream, ucArgsLength);
 167              		.loc 1 143 0
 168 000e E271     		strb	r2, [r4, #7]
 169              	.LVL24:
 170              		.loc 1 144 0
 171 0010 2946     		mov	r1, r5
 172 0012 04F10800 		add	r0, r4, #8
 173              	.LVL25:
 174 0016 FFF7FEFF 		bl	UINT16_TO_STREAM_f
 175              	.LVL26:
 145:../libraries/CC3000_Host_Driver/hci.c **** 	
 146:../libraries/CC3000_Host_Driver/hci.c **** 	// Send the command over SPI on data channel
 147:../libraries/CC3000_Host_Driver/hci.c **** 	SpiWrite(pucBuff, ucArgsLength + ucDataLength + SIMPLE_LINK_HCI_DATA_CMND_HEADER_SIZE);
 176              		.loc 1 147 0
 177 001a 6A1D     		adds	r2, r5, #5
 178 001c 2046     		mov	r0, r4
 179 001e 91B2     		uxth	r1, r2
 148:../libraries/CC3000_Host_Driver/hci.c **** 	
 149:../libraries/CC3000_Host_Driver/hci.c **** 	return;
 150:../libraries/CC3000_Host_Driver/hci.c **** }
 180              		.loc 1 150 0
 181 0020 BDE83840 		pop	{r3, r4, r5, lr}
 147:../libraries/CC3000_Host_Driver/hci.c **** 	SpiWrite(pucBuff, ucArgsLength + ucDataLength + SIMPLE_LINK_HCI_DATA_CMND_HEADER_SIZE);
 182              		.loc 1 147 0
 183 0024 FFF7FEBF 		b	SpiWrite
 184              	.LVL27:
 185              		.cfi_endproc
 186              	.LFE58:
 188              		.section	.text.hci_patch_send,"ax",%progbits
 189              		.align	1
 190              		.global	hci_patch_send
 191              		.thumb
 192              		.thumb_func
 194              	hci_patch_send:
 195              	.LFB59:
 151:../libraries/CC3000_Host_Driver/hci.c **** 
 152:../libraries/CC3000_Host_Driver/hci.c **** //*****************************************************************************
 153:../libraries/CC3000_Host_Driver/hci.c **** //
 154:../libraries/CC3000_Host_Driver/hci.c **** //!  hci_patch_send
 155:../libraries/CC3000_Host_Driver/hci.c **** //!
 156:../libraries/CC3000_Host_Driver/hci.c **** //!  @param  usOpcode      command operation code
 157:../libraries/CC3000_Host_Driver/hci.c **** //!  @param  pucBuff       pointer to the command's arguments buffer
 158:../libraries/CC3000_Host_Driver/hci.c **** //!  @param  patch         pointer to patch content buffer 
 159:../libraries/CC3000_Host_Driver/hci.c **** //!  @param  usDataLength  data length
 160:../libraries/CC3000_Host_Driver/hci.c **** //!
 161:../libraries/CC3000_Host_Driver/hci.c **** //!  @return              none
 162:../libraries/CC3000_Host_Driver/hci.c **** //!
 163:../libraries/CC3000_Host_Driver/hci.c **** //!  @brief               Prepeare HCI header and initiate an HCI patch write operation
 164:../libraries/CC3000_Host_Driver/hci.c **** //
 165:../libraries/CC3000_Host_Driver/hci.c **** //*****************************************************************************
 166:../libraries/CC3000_Host_Driver/hci.c **** void
 167:../libraries/CC3000_Host_Driver/hci.c **** hci_patch_send(unsigned char ucOpcode, unsigned char *pucBuff, char *patch, unsigned short usDataLe
 168:../libraries/CC3000_Host_Driver/hci.c **** { 
 196              		.loc 1 168 0
 197              		.cfi_startproc
 198              		@ args = 0, pretend = 0, frame = 0
 199              		@ frame_needed = 0, uses_anonymous_args = 0
 200              	.LVL28:
 201 0000 2DE9F047 		push	{r4, r5, r6, r7, r8, r9, sl, lr}
 202              	.LCFI3:
 203              		.cfi_def_cfa_offset 32
 204              		.cfi_offset 4, -32
 205              		.cfi_offset 5, -28
 206              		.cfi_offset 6, -24
 207              		.cfi_offset 7, -20
 208              		.cfi_offset 8, -16
 209              		.cfi_offset 9, -12
 210              		.cfi_offset 10, -8
 211              		.cfi_offset 14, -4
 212              		.loc 1 168 0
 213 0004 1D46     		mov	r5, r3
 169:../libraries/CC3000_Host_Driver/hci.c ****  	unsigned char *data_ptr = (pucBuff + SPI_HEADER_SIZE);
 170:../libraries/CC3000_Host_Driver/hci.c **** 	unsigned short usTransLength;
 171:../libraries/CC3000_Host_Driver/hci.c **** 	unsigned char *stream = (pucBuff + SPI_HEADER_SIZE);
 172:../libraries/CC3000_Host_Driver/hci.c **** 	
 173:../libraries/CC3000_Host_Driver/hci.c **** 	UINT8_TO_STREAM(stream, HCI_TYPE_PATCH);
 174:../libraries/CC3000_Host_Driver/hci.c **** 	UINT8_TO_STREAM(stream, ucOpcode);
 175:../libraries/CC3000_Host_Driver/hci.c **** 	stream = UINT16_TO_STREAM(stream, usDataLength + SIMPLE_LINK_HCI_PATCH_HEADER_SIZE);
 214              		.loc 1 175 0
 215 0006 05F1020A 		add	sl, r5, #2
 173:../libraries/CC3000_Host_Driver/hci.c **** 	UINT8_TO_STREAM(stream, HCI_TYPE_PATCH);
 216              		.loc 1 173 0
 217 000a 0323     		movs	r3, #3
 218              	.LVL29:
 174:../libraries/CC3000_Host_Driver/hci.c **** 	UINT8_TO_STREAM(stream, ucOpcode);
 219              		.loc 1 174 0
 220 000c 01F10709 		add	r9, r1, #7
 221              		.loc 1 175 0
 222 0010 1FFA8AFA 		uxth	sl, sl
 174:../libraries/CC3000_Host_Driver/hci.c **** 	UINT8_TO_STREAM(stream, ucOpcode);
 223              		.loc 1 174 0
 224 0014 8871     		strb	r0, [r1, #6]
 173:../libraries/CC3000_Host_Driver/hci.c **** 	UINT8_TO_STREAM(stream, HCI_TYPE_PATCH);
 225              		.loc 1 173 0
 226 0016 4B71     		strb	r3, [r1, #5]
 227              	.LVL30:
 168:../libraries/CC3000_Host_Driver/hci.c **** { 
 228              		.loc 1 168 0
 229 0018 0C46     		mov	r4, r1
 230              		.loc 1 175 0
 231 001a 4846     		mov	r0, r9
 232              	.LVL31:
 233 001c 5146     		mov	r1, sl
 234              	.LVL32:
 168:../libraries/CC3000_Host_Driver/hci.c **** { 
 235              		.loc 1 168 0
 236 001e 1746     		mov	r7, r2
 237              		.loc 1 175 0
 238 0020 FFF7FEFF 		bl	UINT16_TO_STREAM_f
 239              	.LVL33:
 176:../libraries/CC3000_Host_Driver/hci.c **** 	
 177:../libraries/CC3000_Host_Driver/hci.c **** 	if (usDataLength <= SL_PATCH_PORTION_SIZE)
 240              		.loc 1 177 0
 241 0024 B5F57A7F 		cmp	r5, #1000
 175:../libraries/CC3000_Host_Driver/hci.c **** 	stream = UINT16_TO_STREAM(stream, usDataLength + SIMPLE_LINK_HCI_PATCH_HEADER_SIZE);
 242              		.loc 1 175 0
 243 0028 8046     		mov	r8, r0
 244              	.LVL34:
 245              		.loc 1 177 0
 246 002a 13D8     		bhi	.L5
 178:../libraries/CC3000_Host_Driver/hci.c **** 	{
 179:../libraries/CC3000_Host_Driver/hci.c **** 		UINT16_TO_STREAM(stream, usDataLength);
 247              		.loc 1 179 0
 248 002c 2946     		mov	r1, r5
 249 002e FFF7FEFF 		bl	UINT16_TO_STREAM_f
 250              	.LVL35:
 180:../libraries/CC3000_Host_Driver/hci.c **** 		stream = UINT16_TO_STREAM(stream, usDataLength);
 251              		.loc 1 180 0
 252 0032 2946     		mov	r1, r5
 253 0034 4046     		mov	r0, r8
 254 0036 FFF7FEFF 		bl	UINT16_TO_STREAM_f
 255              	.LVL36:
 181:../libraries/CC3000_Host_Driver/hci.c **** 		memcpy((pucBuff + SPI_HEADER_SIZE) + HCI_PATCH_HEADER_SIZE, patch, usDataLength);
 256              		.loc 1 181 0
 257 003a 3946     		mov	r1, r7
 258 003c 04F10B00 		add	r0, r4, #11
 259 0040 2A46     		mov	r2, r5
 260 0042 FFF7FEFF 		bl	memcpy
 261              	.LVL37:
 182:../libraries/CC3000_Host_Driver/hci.c **** 		
 183:../libraries/CC3000_Host_Driver/hci.c **** 		// Update the opcode of the event we will be waiting for
 184:../libraries/CC3000_Host_Driver/hci.c **** 		SpiWrite(pucBuff, usDataLength + HCI_PATCH_HEADER_SIZE);
 262              		.loc 1 184 0
 263 0046 A91D     		adds	r1, r5, #6
 264 0048 2046     		mov	r0, r4
 265 004a 89B2     		uxth	r1, r1
 185:../libraries/CC3000_Host_Driver/hci.c **** 	}
 186:../libraries/CC3000_Host_Driver/hci.c **** 	else
 187:../libraries/CC3000_Host_Driver/hci.c **** 	{
 188:../libraries/CC3000_Host_Driver/hci.c **** 		
 189:../libraries/CC3000_Host_Driver/hci.c **** 		usTransLength = (usDataLength/SL_PATCH_PORTION_SIZE);
 190:../libraries/CC3000_Host_Driver/hci.c **** 		UINT16_TO_STREAM(stream, usDataLength + SIMPLE_LINK_HCI_PATCH_HEADER_SIZE + usTransLength*SIMPLE_
 191:../libraries/CC3000_Host_Driver/hci.c **** 		stream = UINT16_TO_STREAM(stream, SL_PATCH_PORTION_SIZE);
 192:../libraries/CC3000_Host_Driver/hci.c **** 		memcpy(pucBuff + SPI_HEADER_SIZE + HCI_PATCH_HEADER_SIZE, patch, SL_PATCH_PORTION_SIZE);
 193:../libraries/CC3000_Host_Driver/hci.c **** 		usDataLength -= SL_PATCH_PORTION_SIZE;
 194:../libraries/CC3000_Host_Driver/hci.c **** 		patch += SL_PATCH_PORTION_SIZE;
 195:../libraries/CC3000_Host_Driver/hci.c **** 		
 196:../libraries/CC3000_Host_Driver/hci.c **** 		// Update the opcode of the event we will be waiting for
 197:../libraries/CC3000_Host_Driver/hci.c **** 		SpiWrite(pucBuff, SL_PATCH_PORTION_SIZE + HCI_PATCH_HEADER_SIZE);
 198:../libraries/CC3000_Host_Driver/hci.c **** 		
 199:../libraries/CC3000_Host_Driver/hci.c **** 		while (usDataLength)
 200:../libraries/CC3000_Host_Driver/hci.c **** 		{
 201:../libraries/CC3000_Host_Driver/hci.c **** 			if (usDataLength <= SL_PATCH_PORTION_SIZE)
 202:../libraries/CC3000_Host_Driver/hci.c **** 			{
 203:../libraries/CC3000_Host_Driver/hci.c **** 				usTransLength = usDataLength;
 204:../libraries/CC3000_Host_Driver/hci.c **** 				usDataLength = 0;
 205:../libraries/CC3000_Host_Driver/hci.c **** 				
 206:../libraries/CC3000_Host_Driver/hci.c **** 			}
 207:../libraries/CC3000_Host_Driver/hci.c **** 			else
 208:../libraries/CC3000_Host_Driver/hci.c **** 			{
 209:../libraries/CC3000_Host_Driver/hci.c **** 				usTransLength = SL_PATCH_PORTION_SIZE;
 210:../libraries/CC3000_Host_Driver/hci.c **** 				usDataLength -= usTransLength;
 211:../libraries/CC3000_Host_Driver/hci.c **** 			}
 212:../libraries/CC3000_Host_Driver/hci.c **** 			
 213:../libraries/CC3000_Host_Driver/hci.c **** 			*(unsigned short *)data_ptr = usTransLength;
 214:../libraries/CC3000_Host_Driver/hci.c **** 			memcpy(data_ptr + SIMPLE_LINK_HCI_PATCH_HEADER_SIZE, patch, usTransLength);
 215:../libraries/CC3000_Host_Driver/hci.c **** 			patch += usTransLength;
 216:../libraries/CC3000_Host_Driver/hci.c **** 			
 217:../libraries/CC3000_Host_Driver/hci.c **** 			// Update the opcode of the event we will be waiting for
 218:../libraries/CC3000_Host_Driver/hci.c **** 			SpiWrite((unsigned char *)data_ptr, usTransLength + sizeof(usTransLength));
 219:../libraries/CC3000_Host_Driver/hci.c **** 		}
 220:../libraries/CC3000_Host_Driver/hci.c **** 	}
 221:../libraries/CC3000_Host_Driver/hci.c **** }
 266              		.loc 1 221 0
 267 004c BDE8F047 		pop	{r4, r5, r6, r7, r8, r9, sl, lr}
 184:../libraries/CC3000_Host_Driver/hci.c **** 		SpiWrite(pucBuff, usDataLength + HCI_PATCH_HEADER_SIZE);
 268              		.loc 1 184 0
 269 0050 FFF7FEBF 		b	SpiWrite
 270              	.LVL38:
 271              	.L5:
 189:../libraries/CC3000_Host_Driver/hci.c **** 		usTransLength = (usDataLength/SL_PATCH_PORTION_SIZE);
 272              		.loc 1 189 0
 273 0054 4FF47A76 		mov	r6, #1000
 274 0058 B5FBF6F1 		udiv	r1, r5, r6
 190:../libraries/CC3000_Host_Driver/hci.c **** 		UINT16_TO_STREAM(stream, usDataLength + SIMPLE_LINK_HCI_PATCH_HEADER_SIZE + usTransLength*SIMPLE_
 275              		.loc 1 190 0
 276 005c 0AEB4102 		add	r2, sl, r1, lsl #1
 277 0060 91B2     		uxth	r1, r2
 278 0062 FFF7FEFF 		bl	UINT16_TO_STREAM_f
 279              	.LVL39:
 191:../libraries/CC3000_Host_Driver/hci.c **** 		stream = UINT16_TO_STREAM(stream, SL_PATCH_PORTION_SIZE);
 280              		.loc 1 191 0
 281 0066 3146     		mov	r1, r6
 282 0068 4046     		mov	r0, r8
 283 006a FFF7FEFF 		bl	UINT16_TO_STREAM_f
 284              	.LVL40:
 192:../libraries/CC3000_Host_Driver/hci.c **** 		memcpy(pucBuff + SPI_HEADER_SIZE + HCI_PATCH_HEADER_SIZE, patch, SL_PATCH_PORTION_SIZE);
 285              		.loc 1 192 0
 286 006e 3946     		mov	r1, r7
 287 0070 04F10B00 		add	r0, r4, #11
 288 0074 3246     		mov	r2, r6
 289 0076 FFF7FEFF 		bl	memcpy
 290              	.LVL41:
 193:../libraries/CC3000_Host_Driver/hci.c **** 		usDataLength -= SL_PATCH_PORTION_SIZE;
 291              		.loc 1 193 0
 292 007a A5F57A75 		sub	r5, r5, #1000
 293              	.LVL42:
 197:../libraries/CC3000_Host_Driver/hci.c **** 		SpiWrite(pucBuff, SL_PATCH_PORTION_SIZE + HCI_PATCH_HEADER_SIZE);
 294              		.loc 1 197 0
 295 007e 2046     		mov	r0, r4
 296 0080 40F2EE31 		movw	r1, #1006
 193:../libraries/CC3000_Host_Driver/hci.c **** 		usDataLength -= SL_PATCH_PORTION_SIZE;
 297              		.loc 1 193 0
 298 0084 ADB2     		uxth	r5, r5
 299              	.LVL43:
 194:../libraries/CC3000_Host_Driver/hci.c **** 		patch += SL_PATCH_PORTION_SIZE;
 300              		.loc 1 194 0
 301 0086 BF19     		adds	r7, r7, r6
 302              	.LVL44:
 197:../libraries/CC3000_Host_Driver/hci.c **** 		SpiWrite(pucBuff, SL_PATCH_PORTION_SIZE + HCI_PATCH_HEADER_SIZE);
 303              		.loc 1 197 0
 304 0088 FFF7FEFF 		bl	SpiWrite
 305              	.LVL45:
 306              	.L7:
 201:../libraries/CC3000_Host_Driver/hci.c **** 			if (usDataLength <= SL_PATCH_PORTION_SIZE)
 307              		.loc 1 201 0
 308 008c B5F57A7F 		cmp	r5, #1000
 309 0090 05D9     		bls	.L8
 310              	.LVL46:
 210:../libraries/CC3000_Host_Driver/hci.c **** 				usDataLength -= usTransLength;
 311              		.loc 1 210 0
 312 0092 A5F57A70 		sub	r0, r5, #1000
 313 0096 85B2     		uxth	r5, r0
 314              	.LVL47:
 209:../libraries/CC3000_Host_Driver/hci.c **** 				usTransLength = SL_PATCH_PORTION_SIZE;
 315              		.loc 1 209 0
 316 0098 4FF47A76 		mov	r6, #1000
 317 009c 01E0     		b	.L6
 318              	.LVL48:
 319              	.L8:
 201:../libraries/CC3000_Host_Driver/hci.c **** 			if (usDataLength <= SL_PATCH_PORTION_SIZE)
 320              		.loc 1 201 0
 321 009e 2E46     		mov	r6, r5
 204:../libraries/CC3000_Host_Driver/hci.c **** 				usDataLength = 0;
 322              		.loc 1 204 0
 323 00a0 0025     		movs	r5, #0
 324              	.L6:
 325              	.LVL49:
 213:../libraries/CC3000_Host_Driver/hci.c **** 			*(unsigned short *)data_ptr = usTransLength;
 326              		.loc 1 213 0
 327 00a2 A046     		mov	r8, r4
 214:../libraries/CC3000_Host_Driver/hci.c **** 			memcpy(data_ptr + SIMPLE_LINK_HCI_PATCH_HEADER_SIZE, patch, usTransLength);
 328              		.loc 1 214 0
 329 00a4 3946     		mov	r1, r7
 213:../libraries/CC3000_Host_Driver/hci.c **** 			*(unsigned short *)data_ptr = usTransLength;
 330              		.loc 1 213 0
 331 00a6 28F8056F 		strh	r6, [r8, #5]!	@ movhi
 214:../libraries/CC3000_Host_Driver/hci.c **** 			memcpy(data_ptr + SIMPLE_LINK_HCI_PATCH_HEADER_SIZE, patch, usTransLength);
 332              		.loc 1 214 0
 333 00aa 4846     		mov	r0, r9
 334 00ac 3246     		mov	r2, r6
 335 00ae FFF7FEFF 		bl	memcpy
 336              	.LVL50:
 218:../libraries/CC3000_Host_Driver/hci.c **** 			SpiWrite((unsigned char *)data_ptr, usTransLength + sizeof(usTransLength));
 337              		.loc 1 218 0
 338 00b2 B31C     		adds	r3, r6, #2
 339 00b4 4046     		mov	r0, r8
 340 00b6 99B2     		uxth	r1, r3
 215:../libraries/CC3000_Host_Driver/hci.c **** 			patch += usTransLength;
 341              		.loc 1 215 0
 342 00b8 BF19     		adds	r7, r7, r6
 343              	.LVL51:
 218:../libraries/CC3000_Host_Driver/hci.c **** 			SpiWrite((unsigned char *)data_ptr, usTransLength + sizeof(usTransLength));
 344              		.loc 1 218 0
 345 00ba FFF7FEFF 		bl	SpiWrite
 346              	.LVL52:
 199:../libraries/CC3000_Host_Driver/hci.c **** 		while (usDataLength)
 347              		.loc 1 199 0
 348 00be 002D     		cmp	r5, #0
 349 00c0 E4D1     		bne	.L7
 350              		.loc 1 221 0
 351 00c2 BDE8F087 		pop	{r4, r5, r6, r7, r8, r9, sl, pc}
 352              		.cfi_endproc
 353              	.LFE59:
 355              		.text
 356              	.Letext0:
 357              		.file 2 "../libraries/CC3000_Host_Driver/cc3000_common.h"
 358              		.file 3 "/Users/zac/code/spark/cc3000-patch-programmer/inc/cc3000_spi.h"
 359              		.file 4 "/usr/local/gcc-arm-none-eabi-4_7-2013q1/bin/../lib/gcc/arm-none-eabi/4.7.3/../../../../ar
 360              		.file 5 "/Users/zac/code/spark/cc3000-patch-programmer/libraries/CMSIS/Include/core_cm3.h"