   1              		.syntax unified
   2              		.cpu cortex-m3
   3              		.fpu softvfp
   4              		.eabi_attribute 20, 1
   5              		.eabi_attribute 21, 1
   6              		.eabi_attribute 23, 3
   7              		.eabi_attribute 24, 1
   8              		.eabi_attribute 25, 1
   9              		.eabi_attribute 26, 1
  10              		.eabi_attribute 30, 4
  11              		.eabi_attribute 34, 1
  12              		.eabi_attribute 18, 4
  13              		.thumb
  14              		.file	"security.c"
  15              		.text
  16              	.Ltext0:
  17              		.cfi_sections	.debug_frame
  18              		.section	.text.expandKey,"ax",%progbits
  19              		.align	1
  20              		.global	expandKey
  21              		.thumb
  22              		.thumb_func
  24              	expandKey:
  25              	.LFB0:
  26              		.file 1 "../libraries/CC3000_Host_Driver/security.c"
   1:../libraries/CC3000_Host_Driver/security.c **** /*****************************************************************************
   2:../libraries/CC3000_Host_Driver/security.c **** *
   3:../libraries/CC3000_Host_Driver/security.c **** *  security.c  - CC3000 Host Driver Implementation.
   4:../libraries/CC3000_Host_Driver/security.c **** *  Copyright (C) 2011 Texas Instruments Incorporated - http://www.ti.com/
   5:../libraries/CC3000_Host_Driver/security.c **** *
   6:../libraries/CC3000_Host_Driver/security.c **** *  Redistribution and use in source and binary forms, with or without
   7:../libraries/CC3000_Host_Driver/security.c **** *  modification, are permitted provided that the following conditions
   8:../libraries/CC3000_Host_Driver/security.c **** *  are met:
   9:../libraries/CC3000_Host_Driver/security.c **** *
  10:../libraries/CC3000_Host_Driver/security.c **** *    Redistributions of source code must retain the above copyright
  11:../libraries/CC3000_Host_Driver/security.c **** *    notice, this list of conditions and the following disclaimer.
  12:../libraries/CC3000_Host_Driver/security.c **** *
  13:../libraries/CC3000_Host_Driver/security.c **** *    Redistributions in binary form must reproduce the above copyright
  14:../libraries/CC3000_Host_Driver/security.c **** *    notice, this list of conditions and the following disclaimer in the
  15:../libraries/CC3000_Host_Driver/security.c **** *    documentation and/or other materials provided with the   
  16:../libraries/CC3000_Host_Driver/security.c **** *    distribution.
  17:../libraries/CC3000_Host_Driver/security.c **** *
  18:../libraries/CC3000_Host_Driver/security.c **** *    Neither the name of Texas Instruments Incorporated nor the names of
  19:../libraries/CC3000_Host_Driver/security.c **** *    its contributors may be used to endorse or promote products derived
  20:../libraries/CC3000_Host_Driver/security.c **** *    from this software without specific prior written permission.
  21:../libraries/CC3000_Host_Driver/security.c **** *
  22:../libraries/CC3000_Host_Driver/security.c **** *  THIS SOFTWARE IS PROVIDED BY THE COPYRIGHT HOLDERS AND CONTRIBUTORS 
  23:../libraries/CC3000_Host_Driver/security.c **** *  "AS IS" AND ANY EXPRESS OR IMPLIED WARRANTIES, INCLUDING, BUT NOT 
  24:../libraries/CC3000_Host_Driver/security.c **** *  LIMITED TO, THE IMPLIED WARRANTIES OF MERCHANTABILITY AND FITNESS FOR
  25:../libraries/CC3000_Host_Driver/security.c **** *  A PARTICULAR PURPOSE ARE DISCLAIMED. IN NO EVENT SHALL THE COPYRIGHT 
  26:../libraries/CC3000_Host_Driver/security.c **** *  OWNER OR CONTRIBUTORS BE LIABLE FOR ANY DIRECT, INDIRECT, INCIDENTAL, 
  27:../libraries/CC3000_Host_Driver/security.c **** *  SPECIAL, EXEMPLARY, OR CONSEQUENTIAL DAMAGES (INCLUDING, BUT NOT 
  28:../libraries/CC3000_Host_Driver/security.c **** *  LIMITED TO, PROCUREMENT OF SUBSTITUTE GOODS OR SERVICES; LOSS OF USE,
  29:../libraries/CC3000_Host_Driver/security.c **** *  DATA, OR PROFITS; OR BUSINESS INTERRUPTION) HOWEVER CAUSED AND ON ANY
  30:../libraries/CC3000_Host_Driver/security.c **** *  THEORY OF LIABILITY, WHETHER IN CONTRACT, STRICT LIABILITY, OR TORT 
  31:../libraries/CC3000_Host_Driver/security.c **** *  (INCLUDING NEGLIGENCE OR OTHERWISE) ARISING IN ANY WAY OUT OF THE USE 
  32:../libraries/CC3000_Host_Driver/security.c **** *  OF THIS SOFTWARE, EVEN IF ADVISED OF THE POSSIBILITY OF SUCH DAMAGE.
  33:../libraries/CC3000_Host_Driver/security.c **** *
  34:../libraries/CC3000_Host_Driver/security.c **** *****************************************************************************/
  35:../libraries/CC3000_Host_Driver/security.c **** 
  36:../libraries/CC3000_Host_Driver/security.c **** //*****************************************************************************
  37:../libraries/CC3000_Host_Driver/security.c **** //
  38:../libraries/CC3000_Host_Driver/security.c **** //! \addtogroup security_api
  39:../libraries/CC3000_Host_Driver/security.c **** //! @{
  40:../libraries/CC3000_Host_Driver/security.c **** //
  41:../libraries/CC3000_Host_Driver/security.c **** //*****************************************************************************
  42:../libraries/CC3000_Host_Driver/security.c **** 
  43:../libraries/CC3000_Host_Driver/security.c **** #include "security.h"
  44:../libraries/CC3000_Host_Driver/security.c **** 
  45:../libraries/CC3000_Host_Driver/security.c **** #ifndef CC3000_UNENCRYPTED_SMART_CONFIG
  46:../libraries/CC3000_Host_Driver/security.c **** // foreward sbox
  47:../libraries/CC3000_Host_Driver/security.c **** const unsigned char sbox[256] =   { 
  48:../libraries/CC3000_Host_Driver/security.c **** //0     1    2      3     4    5     6     7      8    9     A      B    C     D     E     F
  49:../libraries/CC3000_Host_Driver/security.c **** 0x63, 0x7c, 0x77, 0x7b, 0xf2, 0x6b, 0x6f, 0xc5, 0x30, 0x01, 0x67, 0x2b, 0xfe, 0xd7, 0xab, 0x76, //0
  50:../libraries/CC3000_Host_Driver/security.c **** 0xca, 0x82, 0xc9, 0x7d, 0xfa, 0x59, 0x47, 0xf0, 0xad, 0xd4, 0xa2, 0xaf, 0x9c, 0xa4, 0x72, 0xc0, //1
  51:../libraries/CC3000_Host_Driver/security.c **** 0xb7, 0xfd, 0x93, 0x26, 0x36, 0x3f, 0xf7, 0xcc, 0x34, 0xa5, 0xe5, 0xf1, 0x71, 0xd8, 0x31, 0x15, //2
  52:../libraries/CC3000_Host_Driver/security.c **** 0x04, 0xc7, 0x23, 0xc3, 0x18, 0x96, 0x05, 0x9a, 0x07, 0x12, 0x80, 0xe2, 0xeb, 0x27, 0xb2, 0x75, //3
  53:../libraries/CC3000_Host_Driver/security.c **** 0x09, 0x83, 0x2c, 0x1a, 0x1b, 0x6e, 0x5a, 0xa0, 0x52, 0x3b, 0xd6, 0xb3, 0x29, 0xe3, 0x2f, 0x84, //4
  54:../libraries/CC3000_Host_Driver/security.c **** 0x53, 0xd1, 0x00, 0xed, 0x20, 0xfc, 0xb1, 0x5b, 0x6a, 0xcb, 0xbe, 0x39, 0x4a, 0x4c, 0x58, 0xcf, //5
  55:../libraries/CC3000_Host_Driver/security.c **** 0xd0, 0xef, 0xaa, 0xfb, 0x43, 0x4d, 0x33, 0x85, 0x45, 0xf9, 0x02, 0x7f, 0x50, 0x3c, 0x9f, 0xa8, //6
  56:../libraries/CC3000_Host_Driver/security.c **** 0x51, 0xa3, 0x40, 0x8f, 0x92, 0x9d, 0x38, 0xf5, 0xbc, 0xb6, 0xda, 0x21, 0x10, 0xff, 0xf3, 0xd2, //7
  57:../libraries/CC3000_Host_Driver/security.c **** 0xcd, 0x0c, 0x13, 0xec, 0x5f, 0x97, 0x44, 0x17, 0xc4, 0xa7, 0x7e, 0x3d, 0x64, 0x5d, 0x19, 0x73, //8
  58:../libraries/CC3000_Host_Driver/security.c **** 0x60, 0x81, 0x4f, 0xdc, 0x22, 0x2a, 0x90, 0x88, 0x46, 0xee, 0xb8, 0x14, 0xde, 0x5e, 0x0b, 0xdb, //9
  59:../libraries/CC3000_Host_Driver/security.c **** 0xe0, 0x32, 0x3a, 0x0a, 0x49, 0x06, 0x24, 0x5c, 0xc2, 0xd3, 0xac, 0x62, 0x91, 0x95, 0xe4, 0x79, //A
  60:../libraries/CC3000_Host_Driver/security.c **** 0xe7, 0xc8, 0x37, 0x6d, 0x8d, 0xd5, 0x4e, 0xa9, 0x6c, 0x56, 0xf4, 0xea, 0x65, 0x7a, 0xae, 0x08, //B
  61:../libraries/CC3000_Host_Driver/security.c **** 0xba, 0x78, 0x25, 0x2e, 0x1c, 0xa6, 0xb4, 0xc6, 0xe8, 0xdd, 0x74, 0x1f, 0x4b, 0xbd, 0x8b, 0x8a, //C
  62:../libraries/CC3000_Host_Driver/security.c **** 0x70, 0x3e, 0xb5, 0x66, 0x48, 0x03, 0xf6, 0x0e, 0x61, 0x35, 0x57, 0xb9, 0x86, 0xc1, 0x1d, 0x9e, //D
  63:../libraries/CC3000_Host_Driver/security.c **** 0xe1, 0xf8, 0x98, 0x11, 0x69, 0xd9, 0x8e, 0x94, 0x9b, 0x1e, 0x87, 0xe9, 0xce, 0x55, 0x28, 0xdf, //E
  64:../libraries/CC3000_Host_Driver/security.c **** 0x8c, 0xa1, 0x89, 0x0d, 0xbf, 0xe6, 0x42, 0x68, 0x41, 0x99, 0x2d, 0x0f, 0xb0, 0x54, 0xbb, 0x16 }; /
  65:../libraries/CC3000_Host_Driver/security.c **** // inverse sbox
  66:../libraries/CC3000_Host_Driver/security.c **** const unsigned char rsbox[256] =
  67:../libraries/CC3000_Host_Driver/security.c **** { 0x52, 0x09, 0x6a, 0xd5, 0x30, 0x36, 0xa5, 0x38, 0xbf, 0x40, 0xa3, 0x9e, 0x81, 0xf3, 0xd7, 0xfb
  68:../libraries/CC3000_Host_Driver/security.c **** , 0x7c, 0xe3, 0x39, 0x82, 0x9b, 0x2f, 0xff, 0x87, 0x34, 0x8e, 0x43, 0x44, 0xc4, 0xde, 0xe9, 0xcb
  69:../libraries/CC3000_Host_Driver/security.c **** , 0x54, 0x7b, 0x94, 0x32, 0xa6, 0xc2, 0x23, 0x3d, 0xee, 0x4c, 0x95, 0x0b, 0x42, 0xfa, 0xc3, 0x4e
  70:../libraries/CC3000_Host_Driver/security.c **** , 0x08, 0x2e, 0xa1, 0x66, 0x28, 0xd9, 0x24, 0xb2, 0x76, 0x5b, 0xa2, 0x49, 0x6d, 0x8b, 0xd1, 0x25
  71:../libraries/CC3000_Host_Driver/security.c **** , 0x72, 0xf8, 0xf6, 0x64, 0x86, 0x68, 0x98, 0x16, 0xd4, 0xa4, 0x5c, 0xcc, 0x5d, 0x65, 0xb6, 0x92
  72:../libraries/CC3000_Host_Driver/security.c **** , 0x6c, 0x70, 0x48, 0x50, 0xfd, 0xed, 0xb9, 0xda, 0x5e, 0x15, 0x46, 0x57, 0xa7, 0x8d, 0x9d, 0x84
  73:../libraries/CC3000_Host_Driver/security.c **** , 0x90, 0xd8, 0xab, 0x00, 0x8c, 0xbc, 0xd3, 0x0a, 0xf7, 0xe4, 0x58, 0x05, 0xb8, 0xb3, 0x45, 0x06
  74:../libraries/CC3000_Host_Driver/security.c **** , 0xd0, 0x2c, 0x1e, 0x8f, 0xca, 0x3f, 0x0f, 0x02, 0xc1, 0xaf, 0xbd, 0x03, 0x01, 0x13, 0x8a, 0x6b
  75:../libraries/CC3000_Host_Driver/security.c **** , 0x3a, 0x91, 0x11, 0x41, 0x4f, 0x67, 0xdc, 0xea, 0x97, 0xf2, 0xcf, 0xce, 0xf0, 0xb4, 0xe6, 0x73
  76:../libraries/CC3000_Host_Driver/security.c **** , 0x96, 0xac, 0x74, 0x22, 0xe7, 0xad, 0x35, 0x85, 0xe2, 0xf9, 0x37, 0xe8, 0x1c, 0x75, 0xdf, 0x6e
  77:../libraries/CC3000_Host_Driver/security.c **** , 0x47, 0xf1, 0x1a, 0x71, 0x1d, 0x29, 0xc5, 0x89, 0x6f, 0xb7, 0x62, 0x0e, 0xaa, 0x18, 0xbe, 0x1b
  78:../libraries/CC3000_Host_Driver/security.c **** , 0xfc, 0x56, 0x3e, 0x4b, 0xc6, 0xd2, 0x79, 0x20, 0x9a, 0xdb, 0xc0, 0xfe, 0x78, 0xcd, 0x5a, 0xf4
  79:../libraries/CC3000_Host_Driver/security.c **** , 0x1f, 0xdd, 0xa8, 0x33, 0x88, 0x07, 0xc7, 0x31, 0xb1, 0x12, 0x10, 0x59, 0x27, 0x80, 0xec, 0x5f
  80:../libraries/CC3000_Host_Driver/security.c **** , 0x60, 0x51, 0x7f, 0xa9, 0x19, 0xb5, 0x4a, 0x0d, 0x2d, 0xe5, 0x7a, 0x9f, 0x93, 0xc9, 0x9c, 0xef
  81:../libraries/CC3000_Host_Driver/security.c **** , 0xa0, 0xe0, 0x3b, 0x4d, 0xae, 0x2a, 0xf5, 0xb0, 0xc8, 0xeb, 0xbb, 0x3c, 0x83, 0x53, 0x99, 0x61
  82:../libraries/CC3000_Host_Driver/security.c **** , 0x17, 0x2b, 0x04, 0x7e, 0xba, 0x77, 0xd6, 0x26, 0xe1, 0x69, 0x14, 0x63, 0x55, 0x21, 0x0c, 0x7d };
  83:../libraries/CC3000_Host_Driver/security.c **** // round constant
  84:../libraries/CC3000_Host_Driver/security.c **** const unsigned char Rcon[11] = {
  85:../libraries/CC3000_Host_Driver/security.c ****   0x8d, 0x01, 0x02, 0x04, 0x08, 0x10, 0x20, 0x40, 0x80, 0x1b, 0x36};
  86:../libraries/CC3000_Host_Driver/security.c **** 
  87:../libraries/CC3000_Host_Driver/security.c **** 
  88:../libraries/CC3000_Host_Driver/security.c **** unsigned char expandedKey[176];
  89:../libraries/CC3000_Host_Driver/security.c **** 
  90:../libraries/CC3000_Host_Driver/security.c **** //*****************************************************************************
  91:../libraries/CC3000_Host_Driver/security.c **** //
  92:../libraries/CC3000_Host_Driver/security.c **** //!  expandKey
  93:../libraries/CC3000_Host_Driver/security.c **** //!
  94:../libraries/CC3000_Host_Driver/security.c **** //!  @param  key          AES128 key - 16 bytes
  95:../libraries/CC3000_Host_Driver/security.c **** //!  @param  expandedKey  expanded AES128 key
  96:../libraries/CC3000_Host_Driver/security.c **** //!
  97:../libraries/CC3000_Host_Driver/security.c **** //!  @return  none
  98:../libraries/CC3000_Host_Driver/security.c **** //!
  99:../libraries/CC3000_Host_Driver/security.c **** //!  @brief  expend a 16 bytes key for AES128 implementation
 100:../libraries/CC3000_Host_Driver/security.c **** //!
 101:../libraries/CC3000_Host_Driver/security.c **** //*****************************************************************************
 102:../libraries/CC3000_Host_Driver/security.c **** 
 103:../libraries/CC3000_Host_Driver/security.c **** void expandKey(unsigned char *expandedKey,
 104:../libraries/CC3000_Host_Driver/security.c ****                unsigned char *key)
 105:../libraries/CC3000_Host_Driver/security.c **** {
  27              		.loc 1 105 0
  28              		.cfi_startproc
  29              		@ args = 0, pretend = 0, frame = 0
  30              		@ frame_needed = 0, uses_anonymous_args = 0
  31              	.LVL0:
  32 0000 2DE9F043 		push	{r4, r5, r6, r7, r8, r9, lr}
  33              	.LCFI0:
  34              		.cfi_def_cfa_offset 28
  35              		.cfi_offset 4, -28
  36              		.cfi_offset 5, -24
  37              		.cfi_offset 6, -20
  38              		.cfi_offset 7, -16
  39              		.cfi_offset 8, -12
  40              		.cfi_offset 9, -8
  41              		.cfi_offset 14, -4
  42              		.loc 1 105 0
  43 0004 0023     		movs	r3, #0
  44              	.LVL1:
  45              	.L2:
 106:../libraries/CC3000_Host_Driver/security.c ****   unsigned short ii, buf1;
 107:../libraries/CC3000_Host_Driver/security.c ****   for (ii=0;ii<16;ii++)
 108:../libraries/CC3000_Host_Driver/security.c ****     expandedKey[ii] = key[ii];
  46              		.loc 1 108 0 discriminator 2
  47 0006 CA5C     		ldrb	r2, [r1, r3]	@ zero_extendqisi2
  48 0008 C254     		strb	r2, [r0, r3]
  49 000a 0133     		adds	r3, r3, #1
 107:../libraries/CC3000_Host_Driver/security.c ****   for (ii=0;ii<16;ii++)
  50              		.loc 1 107 0 discriminator 2
  51 000c 102B     		cmp	r3, #16
  52 000e FAD1     		bne	.L2
 107:../libraries/CC3000_Host_Driver/security.c ****   for (ii=0;ii<16;ii++)
  53              		.loc 1 107 0 is_stmt 0
  54 0010 0022     		movs	r2, #0
  55              	.LVL2:
  56              	.L3:
 103:../libraries/CC3000_Host_Driver/security.c **** void expandKey(unsigned char *expandedKey,
  57              		.loc 1 103 0 is_stmt 1 discriminator 2
  58 0012 334B     		ldr	r3, .L7
 109:../libraries/CC3000_Host_Driver/security.c ****   for (ii=1;ii<11;ii++){
 110:../libraries/CC3000_Host_Driver/security.c ****     buf1 = expandedKey[ii*16 - 4];
 111:../libraries/CC3000_Host_Driver/security.c ****     expandedKey[ii*16 + 0] = sbox[expandedKey[ii*16 - 3]]^expandedKey[(ii-1)*16 + 0]^Rcon[ii];
  59              		.loc 1 111 0 discriminator 2
  60 0014 467B     		ldrb	r6, [r0, #13]	@ zero_extendqisi2
 103:../libraries/CC3000_Host_Driver/security.c **** void expandKey(unsigned char *expandedKey,
  61              		.loc 1 103 0 discriminator 2
  62 0016 9918     		adds	r1, r3, r2
  63              		.loc 1 111 0 discriminator 2
  64 0018 91F80180 		ldrb	r8, [r1, #1]	@ zero_extendqisi2
  65 001c 0478     		ldrb	r4, [r0, #0]	@ zero_extendqisi2
  66 001e 9F19     		adds	r7, r3, r6
  67 0020 F97A     		ldrb	r1, [r7, #11]	@ zero_extendqisi2
  68 0022 88EA0405 		eor	r5, r8, r4
 112:../libraries/CC3000_Host_Driver/security.c ****     expandedKey[ii*16 + 1] = sbox[expandedKey[ii*16 - 2]]^expandedKey[(ii-1)*16 + 1];
  69              		.loc 1 112 0 discriminator 2
  70 0026 847B     		ldrb	r4, [r0, #14]	@ zero_extendqisi2
 111:../libraries/CC3000_Host_Driver/security.c ****     expandedKey[ii*16 + 0] = sbox[expandedKey[ii*16 - 3]]^expandedKey[(ii-1)*16 + 0]^Rcon[ii];
  71              		.loc 1 111 0 discriminator 2
  72 0028 85EA0108 		eor	r8, r5, r1
  73              		.loc 1 112 0 discriminator 2
  74 002c 1D19     		adds	r5, r3, r4
  75 002e 4178     		ldrb	r1, [r0, #1]	@ zero_extendqisi2
  76 0030 EF7A     		ldrb	r7, [r5, #11]	@ zero_extendqisi2
 110:../libraries/CC3000_Host_Driver/security.c ****     buf1 = expandedKey[ii*16 - 4];
  77              		.loc 1 110 0 discriminator 2
  78 0032 90F80CC0 		ldrb	ip, [r0, #12]	@ zero_extendqisi2
  79              	.LVL3:
  80              		.loc 1 112 0 discriminator 2
  81 0036 4F40     		eors	r7, r7, r1
 113:../libraries/CC3000_Host_Driver/security.c ****     expandedKey[ii*16 + 2] = sbox[expandedKey[ii*16 - 1]]^expandedKey[(ii-1)*16 + 2];
  82              		.loc 1 113 0 discriminator 2
  83 0038 C17B     		ldrb	r1, [r0, #15]	@ zero_extendqisi2
 111:../libraries/CC3000_Host_Driver/security.c ****     expandedKey[ii*16 + 0] = sbox[expandedKey[ii*16 - 3]]^expandedKey[(ii-1)*16 + 0]^Rcon[ii];
  84              		.loc 1 111 0 discriminator 2
  85 003a 80F81080 		strb	r8, [r0, #16]
  86              		.loc 1 113 0 discriminator 2
  87 003e 5D18     		adds	r5, r3, r1
  88 0040 95F80B90 		ldrb	r9, [r5, #11]	@ zero_extendqisi2
  89 0044 8578     		ldrb	r5, [r0, #2]	@ zero_extendqisi2
 114:../libraries/CC3000_Host_Driver/security.c ****     expandedKey[ii*16 + 3] = sbox[buf1                  ]^expandedKey[(ii-1)*16 + 3];
  90              		.loc 1 114 0 discriminator 2
  91 0046 6344     		add	r3, r3, ip
 113:../libraries/CC3000_Host_Driver/security.c ****     expandedKey[ii*16 + 2] = sbox[expandedKey[ii*16 - 1]]^expandedKey[(ii-1)*16 + 2];
  92              		.loc 1 113 0 discriminator 2
  93 0048 89EA0505 		eor	r5, r9, r5
  94              		.loc 1 114 0 discriminator 2
  95 004c 93F80B90 		ldrb	r9, [r3, #11]	@ zero_extendqisi2
  96 0050 C378     		ldrb	r3, [r0, #3]	@ zero_extendqisi2
 112:../libraries/CC3000_Host_Driver/security.c ****     expandedKey[ii*16 + 1] = sbox[expandedKey[ii*16 - 2]]^expandedKey[(ii-1)*16 + 1];
  97              		.loc 1 112 0 discriminator 2
  98 0052 4774     		strb	r7, [r0, #17]
  99              		.loc 1 114 0 discriminator 2
 100 0054 89EA0303 		eor	r3, r9, r3
 115:../libraries/CC3000_Host_Driver/security.c ****     expandedKey[ii*16 + 4] = expandedKey[(ii-1)*16 + 4]^expandedKey[ii*16 + 0];
 101              		.loc 1 115 0 discriminator 2
 102 0058 90F80490 		ldrb	r9, [r0, #4]	@ zero_extendqisi2
 116:../libraries/CC3000_Host_Driver/security.c ****     expandedKey[ii*16 + 5] = expandedKey[(ii-1)*16 + 5]^expandedKey[ii*16 + 1];
 103              		.loc 1 116 0 discriminator 2
 104 005c FFB2     		uxtb	r7, r7
 115:../libraries/CC3000_Host_Driver/security.c ****     expandedKey[ii*16 + 4] = expandedKey[(ii-1)*16 + 4]^expandedKey[ii*16 + 0];
 105              		.loc 1 115 0 discriminator 2
 106 005e 88EA0908 		eor	r8, r8, r9
 107              		.loc 1 116 0 discriminator 2
 108 0062 90F80590 		ldrb	r9, [r0, #5]	@ zero_extendqisi2
 113:../libraries/CC3000_Host_Driver/security.c ****     expandedKey[ii*16 + 2] = sbox[expandedKey[ii*16 - 1]]^expandedKey[(ii-1)*16 + 2];
 109              		.loc 1 113 0 discriminator 2
 110 0066 8574     		strb	r5, [r0, #18]
 111              		.loc 1 116 0 discriminator 2
 112 0068 87EA0907 		eor	r7, r7, r9
 117:../libraries/CC3000_Host_Driver/security.c ****     expandedKey[ii*16 + 6] = expandedKey[(ii-1)*16 + 6]^expandedKey[ii*16 + 2];
 113              		.loc 1 117 0 discriminator 2
 114 006c 90F80690 		ldrb	r9, [r0, #6]	@ zero_extendqisi2
 115 0070 EDB2     		uxtb	r5, r5
 116 0072 85EA0905 		eor	r5, r5, r9
 118:../libraries/CC3000_Host_Driver/security.c ****     expandedKey[ii*16 + 7] = expandedKey[(ii-1)*16 + 7]^expandedKey[ii*16 + 3];
 117              		.loc 1 118 0 discriminator 2
 118 0076 90F80790 		ldrb	r9, [r0, #7]	@ zero_extendqisi2
 114:../libraries/CC3000_Host_Driver/security.c ****     expandedKey[ii*16 + 3] = sbox[buf1                  ]^expandedKey[(ii-1)*16 + 3];
 119              		.loc 1 114 0 discriminator 2
 120 007a C374     		strb	r3, [r0, #19]
 121              		.loc 1 118 0 discriminator 2
 122 007c DBB2     		uxtb	r3, r3
 123 007e 83EA0903 		eor	r3, r3, r9
 119:../libraries/CC3000_Host_Driver/security.c ****     expandedKey[ii*16 + 8] = expandedKey[(ii-1)*16 + 8]^expandedKey[ii*16 + 4];
 124              		.loc 1 119 0 discriminator 2
 125 0082 90F80890 		ldrb	r9, [r0, #8]	@ zero_extendqisi2
 115:../libraries/CC3000_Host_Driver/security.c ****     expandedKey[ii*16 + 4] = expandedKey[(ii-1)*16 + 4]^expandedKey[ii*16 + 0];
 126              		.loc 1 115 0 discriminator 2
 127 0086 80F81480 		strb	r8, [r0, #20]
 128              		.loc 1 119 0 discriminator 2
 129 008a 5FFA88F8 		uxtb	r8, r8
 130 008e 88EA0908 		eor	r8, r8, r9
 120:../libraries/CC3000_Host_Driver/security.c ****     expandedKey[ii*16 + 9] = expandedKey[(ii-1)*16 + 9]^expandedKey[ii*16 + 5];
 131              		.loc 1 120 0 discriminator 2
 132 0092 90F80990 		ldrb	r9, [r0, #9]	@ zero_extendqisi2
 116:../libraries/CC3000_Host_Driver/security.c ****     expandedKey[ii*16 + 5] = expandedKey[(ii-1)*16 + 5]^expandedKey[ii*16 + 1];
 133              		.loc 1 116 0 discriminator 2
 134 0096 4775     		strb	r7, [r0, #21]
 135              		.loc 1 120 0 discriminator 2
 136 0098 FFB2     		uxtb	r7, r7
 137 009a 87EA0907 		eor	r7, r7, r9
 121:../libraries/CC3000_Host_Driver/security.c ****     expandedKey[ii*16 +10] = expandedKey[(ii-1)*16 +10]^expandedKey[ii*16 + 6];
 138              		.loc 1 121 0 discriminator 2
 139 009e 90F80A90 		ldrb	r9, [r0, #10]	@ zero_extendqisi2
 117:../libraries/CC3000_Host_Driver/security.c ****     expandedKey[ii*16 + 6] = expandedKey[(ii-1)*16 + 6]^expandedKey[ii*16 + 2];
 140              		.loc 1 117 0 discriminator 2
 141 00a2 8575     		strb	r5, [r0, #22]
 142              		.loc 1 121 0 discriminator 2
 143 00a4 EDB2     		uxtb	r5, r5
 144 00a6 85EA0905 		eor	r5, r5, r9
 122:../libraries/CC3000_Host_Driver/security.c ****     expandedKey[ii*16 +11] = expandedKey[(ii-1)*16 +11]^expandedKey[ii*16 + 7];
 145              		.loc 1 122 0 discriminator 2
 146 00aa 90F80B90 		ldrb	r9, [r0, #11]	@ zero_extendqisi2
 118:../libraries/CC3000_Host_Driver/security.c ****     expandedKey[ii*16 + 7] = expandedKey[(ii-1)*16 + 7]^expandedKey[ii*16 + 3];
 147              		.loc 1 118 0 discriminator 2
 148 00ae C375     		strb	r3, [r0, #23]
 149              		.loc 1 122 0 discriminator 2
 150 00b0 DBB2     		uxtb	r3, r3
 151 00b2 83EA0903 		eor	r3, r3, r9
 123:../libraries/CC3000_Host_Driver/security.c ****     expandedKey[ii*16 +12] = expandedKey[(ii-1)*16 +12]^expandedKey[ii*16 + 8];
 152              		.loc 1 123 0 discriminator 2
 153 00b6 88EA0C0C 		eor	ip, r8, ip
 154              	.LVL4:
 124:../libraries/CC3000_Host_Driver/security.c ****     expandedKey[ii*16 +13] = expandedKey[(ii-1)*16 +13]^expandedKey[ii*16 + 9];
 155              		.loc 1 124 0 discriminator 2
 156 00ba 7E40     		eors	r6, r6, r7
 125:../libraries/CC3000_Host_Driver/security.c ****     expandedKey[ii*16 +14] = expandedKey[(ii-1)*16 +14]^expandedKey[ii*16 +10];
 157              		.loc 1 125 0 discriminator 2
 158 00bc 6C40     		eors	r4, r4, r5
 126:../libraries/CC3000_Host_Driver/security.c ****     expandedKey[ii*16 +15] = expandedKey[(ii-1)*16 +15]^expandedKey[ii*16 +11];
 159              		.loc 1 126 0 discriminator 2
 160 00be 5940     		eors	r1, r1, r3
 161 00c0 0132     		adds	r2, r2, #1
 119:../libraries/CC3000_Host_Driver/security.c ****     expandedKey[ii*16 + 8] = expandedKey[(ii-1)*16 + 8]^expandedKey[ii*16 + 4];
 162              		.loc 1 119 0 discriminator 2
 163 00c2 80F81880 		strb	r8, [r0, #24]
 120:../libraries/CC3000_Host_Driver/security.c ****     expandedKey[ii*16 + 9] = expandedKey[(ii-1)*16 + 9]^expandedKey[ii*16 + 5];
 164              		.loc 1 120 0 discriminator 2
 165 00c6 4776     		strb	r7, [r0, #25]
 121:../libraries/CC3000_Host_Driver/security.c ****     expandedKey[ii*16 +10] = expandedKey[(ii-1)*16 +10]^expandedKey[ii*16 + 6];
 166              		.loc 1 121 0 discriminator 2
 167 00c8 8576     		strb	r5, [r0, #26]
 122:../libraries/CC3000_Host_Driver/security.c ****     expandedKey[ii*16 +11] = expandedKey[(ii-1)*16 +11]^expandedKey[ii*16 + 7];
 168              		.loc 1 122 0 discriminator 2
 169 00ca C376     		strb	r3, [r0, #27]
 123:../libraries/CC3000_Host_Driver/security.c ****     expandedKey[ii*16 +12] = expandedKey[(ii-1)*16 +12]^expandedKey[ii*16 + 8];
 170              		.loc 1 123 0 discriminator 2
 171 00cc 80F81CC0 		strb	ip, [r0, #28]
 124:../libraries/CC3000_Host_Driver/security.c ****     expandedKey[ii*16 +13] = expandedKey[(ii-1)*16 +13]^expandedKey[ii*16 + 9];
 172              		.loc 1 124 0 discriminator 2
 173 00d0 4677     		strb	r6, [r0, #29]
 125:../libraries/CC3000_Host_Driver/security.c ****     expandedKey[ii*16 +14] = expandedKey[(ii-1)*16 +14]^expandedKey[ii*16 +10];
 174              		.loc 1 125 0 discriminator 2
 175 00d2 8477     		strb	r4, [r0, #30]
 176              		.loc 1 126 0 discriminator 2
 177 00d4 C177     		strb	r1, [r0, #31]
 178 00d6 1030     		adds	r0, r0, #16
 179              	.LVL5:
 109:../libraries/CC3000_Host_Driver/security.c ****   for (ii=1;ii<11;ii++){
 180              		.loc 1 109 0 discriminator 2
 181 00d8 0A2A     		cmp	r2, #10
 182 00da 9AD1     		bne	.L3
 127:../libraries/CC3000_Host_Driver/security.c ****   }
 128:../libraries/CC3000_Host_Driver/security.c **** 	
 129:../libraries/CC3000_Host_Driver/security.c **** }
 183              		.loc 1 129 0
 184 00dc BDE8F083 		pop	{r4, r5, r6, r7, r8, r9, pc}
 185              	.L8:
 186              		.align	2
 187              	.L7:
 188 00e0 00000000 		.word	.LANCHOR0
 189              		.cfi_endproc
 190              	.LFE0:
 192              		.section	.text.galois_mul2,"ax",%progbits
 193              		.align	1
 194              		.global	galois_mul2
 195              		.thumb
 196              		.thumb_func
 198              	galois_mul2:
 199              	.LFB1:
 130:../libraries/CC3000_Host_Driver/security.c **** 
 131:../libraries/CC3000_Host_Driver/security.c **** //*****************************************************************************
 132:../libraries/CC3000_Host_Driver/security.c **** //
 133:../libraries/CC3000_Host_Driver/security.c **** //!  galois_mul2
 134:../libraries/CC3000_Host_Driver/security.c **** //!
 135:../libraries/CC3000_Host_Driver/security.c **** //!  @param  value    argument to multiply
 136:../libraries/CC3000_Host_Driver/security.c **** //!
 137:../libraries/CC3000_Host_Driver/security.c **** //!  @return  multiplied argument
 138:../libraries/CC3000_Host_Driver/security.c **** //!
 139:../libraries/CC3000_Host_Driver/security.c **** //!  @brief  multiply by 2 in the galois field
 140:../libraries/CC3000_Host_Driver/security.c **** //!
 141:../libraries/CC3000_Host_Driver/security.c **** //*****************************************************************************
 142:../libraries/CC3000_Host_Driver/security.c **** 
 143:../libraries/CC3000_Host_Driver/security.c **** unsigned char galois_mul2(unsigned char value)
 144:../libraries/CC3000_Host_Driver/security.c **** {
 200              		.loc 1 144 0
 201              		.cfi_startproc
 202              		@ args = 0, pretend = 0, frame = 0
 203              		@ frame_needed = 0, uses_anonymous_args = 0
 204              		@ link register save eliminated.
 205              	.LVL6:
 145:../libraries/CC3000_Host_Driver/security.c **** 	if (value>>7)
 206              		.loc 1 145 0
 207 0000 10F0800F 		tst	r0, #128
 208 0004 4FEA4000 		lsl	r0, r0, #1
 209              	.LVL7:
 146:../libraries/CC3000_Host_Driver/security.c **** 	{
 147:../libraries/CC3000_Host_Driver/security.c **** 		value = value << 1;
 148:../libraries/CC3000_Host_Driver/security.c **** 		return (value^0x1b);
 210              		.loc 1 148 0
 211 0008 18BF     		it	ne
 212 000a 80F01B00 		eorne	r0, r0, #27
 149:../libraries/CC3000_Host_Driver/security.c **** 	} else
 150:../libraries/CC3000_Host_Driver/security.c **** 		return value<<1;
 213              		.loc 1 150 0
 214 000e C0B2     		uxtb	r0, r0
 151:../libraries/CC3000_Host_Driver/security.c **** }
 215              		.loc 1 151 0
 216 0010 7047     		bx	lr
 217              		.cfi_endproc
 218              	.LFE1:
 220              		.section	.text.aes_encr,"ax",%progbits
 221              		.align	1
 222              		.global	aes_encr
 223              		.thumb
 224              		.thumb_func
 226              	aes_encr:
 227              	.LFB2:
 152:../libraries/CC3000_Host_Driver/security.c **** 
 153:../libraries/CC3000_Host_Driver/security.c **** //*****************************************************************************
 154:../libraries/CC3000_Host_Driver/security.c **** //
 155:../libraries/CC3000_Host_Driver/security.c **** //!  aes_encr
 156:../libraries/CC3000_Host_Driver/security.c **** //!
 157:../libraries/CC3000_Host_Driver/security.c **** //!  @param[in]  expandedKey expanded AES128 key
 158:../libraries/CC3000_Host_Driver/security.c **** //!  @param[in/out] state 16 bytes of plain text and cipher text
 159:../libraries/CC3000_Host_Driver/security.c **** //!
 160:../libraries/CC3000_Host_Driver/security.c **** //!  @return  none
 161:../libraries/CC3000_Host_Driver/security.c **** //!
 162:../libraries/CC3000_Host_Driver/security.c **** //!  @brief   internal implementation of AES128 encryption.
 163:../libraries/CC3000_Host_Driver/security.c **** //!           straight forward aes encryption implementation
 164:../libraries/CC3000_Host_Driver/security.c **** //!           first the group of operations
 165:../libraries/CC3000_Host_Driver/security.c **** //!          - addRoundKey
 166:../libraries/CC3000_Host_Driver/security.c **** //!          - subbytes
 167:../libraries/CC3000_Host_Driver/security.c **** //!          - shiftrows
 168:../libraries/CC3000_Host_Driver/security.c **** //!          - mixcolums
 169:../libraries/CC3000_Host_Driver/security.c **** //!          is executed 9 times, after this addroundkey to finish the 9th 
 170:../libraries/CC3000_Host_Driver/security.c **** //!          round, after that the 10th round without mixcolums
 171:../libraries/CC3000_Host_Driver/security.c **** //!          no further subfunctions to save cycles for function calls
 172:../libraries/CC3000_Host_Driver/security.c **** //!          no structuring with "for (....)" to save cycles.
 173:../libraries/CC3000_Host_Driver/security.c **** //!	 
 174:../libraries/CC3000_Host_Driver/security.c **** //!
 175:../libraries/CC3000_Host_Driver/security.c **** //*****************************************************************************
 176:../libraries/CC3000_Host_Driver/security.c **** 
 177:../libraries/CC3000_Host_Driver/security.c **** void aes_encr(unsigned char *state, unsigned char *expandedKey)
 178:../libraries/CC3000_Host_Driver/security.c **** {
 228              		.loc 1 178 0
 229              		.cfi_startproc
 230              		@ args = 0, pretend = 0, frame = 88
 231              		@ frame_needed = 0, uses_anonymous_args = 0
 232              	.LVL8:
 233 0000 2DE9F04F 		push	{r4, r5, r6, r7, r8, r9, sl, fp, lr}
 234              	.LCFI1:
 235              		.cfi_def_cfa_offset 36
 236              		.cfi_offset 4, -36
 237              		.cfi_offset 5, -32
 238              		.cfi_offset 6, -28
 239              		.cfi_offset 7, -24
 240              		.cfi_offset 8, -20
 241              		.cfi_offset 9, -16
 242              		.cfi_offset 10, -12
 243              		.cfi_offset 11, -8
 244              		.cfi_offset 14, -4
 245 0004 0D46     		mov	r5, r1
 246 0006 97B0     		sub	sp, sp, #92
 247              	.LCFI2:
 248              		.cfi_def_cfa_offset 128
 249 0008 0F46     		mov	r7, r1
 177:../libraries/CC3000_Host_Driver/security.c **** void aes_encr(unsigned char *state, unsigned char *expandedKey)
 250              		.loc 1 177 0
 251 000a 01F19001 		add	r1, r1, #144
 252              	.LVL9:
 253              		.loc 1 178 0
 254 000e 0446     		mov	r4, r0
 177:../libraries/CC3000_Host_Driver/security.c **** void aes_encr(unsigned char *state, unsigned char *expandedKey)
 255              		.loc 1 177 0
 256 0010 1591     		str	r1, [sp, #84]
 257              	.LVL10:
 258              	.L13:
 179:../libraries/CC3000_Host_Driver/security.c ****   unsigned char buf1, buf2, buf3, round;
 180:../libraries/CC3000_Host_Driver/security.c **** 		
 181:../libraries/CC3000_Host_Driver/security.c ****   for (round = 0; round < 9; round ++){
 182:../libraries/CC3000_Host_Driver/security.c ****     // addroundkey, sbox and shiftrows
 183:../libraries/CC3000_Host_Driver/security.c ****     // row 0
 184:../libraries/CC3000_Host_Driver/security.c ****     state[ 0]  = sbox[(state[ 0] ^ expandedKey[(round*16)     ])];
 259              		.loc 1 184 0 discriminator 2
 260 0012 3A78     		ldrb	r2, [r7, #0]	@ zero_extendqisi2
 261 0014 2378     		ldrb	r3, [r4, #0]	@ zero_extendqisi2
 262 0016 BD4E     		ldr	r6, .L15
 263 0018 82EA0300 		eor	r0, r2, r3
 264 001c 3118     		adds	r1, r6, r0
 265 001e 91F80BA0 		ldrb	sl, [r1, #11]	@ zero_extendqisi2
 185:../libraries/CC3000_Host_Driver/security.c ****     state[ 4]  = sbox[(state[ 4] ^ expandedKey[(round*16) +  4])];
 266              		.loc 1 185 0 discriminator 2
 267 0022 2379     		ldrb	r3, [r4, #4]	@ zero_extendqisi2
 184:../libraries/CC3000_Host_Driver/security.c ****     state[ 0]  = sbox[(state[ 0] ^ expandedKey[(round*16)     ])];
 268              		.loc 1 184 0 discriminator 2
 269 0024 84F800A0 		strb	sl, [r4, #0]
 270              		.loc 1 185 0 discriminator 2
 271 0028 3A79     		ldrb	r2, [r7, #4]	@ zero_extendqisi2
 272 002a 82EA0300 		eor	r0, r2, r3
 273 002e 3118     		adds	r1, r6, r0
 274 0030 91F80BB0 		ldrb	fp, [r1, #11]	@ zero_extendqisi2
 186:../libraries/CC3000_Host_Driver/security.c ****     state[ 8]  = sbox[(state[ 8] ^ expandedKey[(round*16) +  8])];
 275              		.loc 1 186 0 discriminator 2
 276 0034 237A     		ldrb	r3, [r4, #8]	@ zero_extendqisi2
 185:../libraries/CC3000_Host_Driver/security.c ****     state[ 4]  = sbox[(state[ 4] ^ expandedKey[(round*16) +  4])];
 277              		.loc 1 185 0 discriminator 2
 278 0036 84F804B0 		strb	fp, [r4, #4]
 279              		.loc 1 186 0 discriminator 2
 280 003a 3A7A     		ldrb	r2, [r7, #8]	@ zero_extendqisi2
 281 003c 82EA0300 		eor	r0, r2, r3
 282 0040 3118     		adds	r1, r6, r0
 283 0042 CA7A     		ldrb	r2, [r1, #11]	@ zero_extendqisi2
 187:../libraries/CC3000_Host_Driver/security.c ****     state[12]  = sbox[(state[12] ^ expandedKey[(round*16) + 12])];
 284              		.loc 1 187 0 discriminator 2
 285 0044 237B     		ldrb	r3, [r4, #12]	@ zero_extendqisi2
 186:../libraries/CC3000_Host_Driver/security.c ****     state[ 8]  = sbox[(state[ 8] ^ expandedKey[(round*16) +  8])];
 286              		.loc 1 186 0 discriminator 2
 287 0046 2272     		strb	r2, [r4, #8]
 288              		.loc 1 187 0 discriminator 2
 289 0048 387B     		ldrb	r0, [r7, #12]	@ zero_extendqisi2
 186:../libraries/CC3000_Host_Driver/security.c ****     state[ 8]  = sbox[(state[ 8] ^ expandedKey[(round*16) +  8])];
 290              		.loc 1 186 0 discriminator 2
 291 004a 0792     		str	r2, [sp, #28]
 292              		.loc 1 187 0 discriminator 2
 293 004c 80EA0301 		eor	r1, r0, r3
 294 0050 7218     		adds	r2, r6, r1
 295 0052 D07A     		ldrb	r0, [r2, #11]	@ zero_extendqisi2
 188:../libraries/CC3000_Host_Driver/security.c ****     // row 1
 189:../libraries/CC3000_Host_Driver/security.c ****     buf1 = state[1] ^ expandedKey[(round*16) + 1];
 296              		.loc 1 189 0 discriminator 2
 297 0054 6378     		ldrb	r3, [r4, #1]	@ zero_extendqisi2
 187:../libraries/CC3000_Host_Driver/security.c ****     state[12]  = sbox[(state[12] ^ expandedKey[(round*16) + 12])];
 298              		.loc 1 187 0 discriminator 2
 299 0056 2073     		strb	r0, [r4, #12]
 300              		.loc 1 189 0 discriminator 2
 301 0058 7978     		ldrb	r1, [r7, #1]	@ zero_extendqisi2
 190:../libraries/CC3000_Host_Driver/security.c ****     state[ 1]  = sbox[(state[ 5] ^ expandedKey[(round*16) +  5])];
 302              		.loc 1 190 0 discriminator 2
 303 005a 6279     		ldrb	r2, [r4, #5]	@ zero_extendqisi2
 187:../libraries/CC3000_Host_Driver/security.c ****     state[12]  = sbox[(state[12] ^ expandedKey[(round*16) + 12])];
 304              		.loc 1 187 0 discriminator 2
 305 005c 0890     		str	r0, [sp, #32]
 306              		.loc 1 190 0 discriminator 2
 307 005e 7879     		ldrb	r0, [r7, #5]	@ zero_extendqisi2
 189:../libraries/CC3000_Host_Driver/security.c ****     buf1 = state[1] ^ expandedKey[(round*16) + 1];
 308              		.loc 1 189 0 discriminator 2
 309 0060 4B40     		eors	r3, r3, r1
 310              	.LVL11:
 311              		.loc 1 190 0 discriminator 2
 312 0062 80EA0201 		eor	r1, r0, r2
 313 0066 7018     		adds	r0, r6, r1
 314 0068 C27A     		ldrb	r2, [r0, #11]	@ zero_extendqisi2
 191:../libraries/CC3000_Host_Driver/security.c ****     state[ 5]  = sbox[(state[ 9] ^ expandedKey[(round*16) +  9])];
 315              		.loc 1 191 0 discriminator 2
 316 006a 617A     		ldrb	r1, [r4, #9]	@ zero_extendqisi2
 190:../libraries/CC3000_Host_Driver/security.c ****     state[ 1]  = sbox[(state[ 5] ^ expandedKey[(round*16) +  5])];
 317              		.loc 1 190 0 discriminator 2
 318 006c 6270     		strb	r2, [r4, #1]
 319              		.loc 1 191 0 discriminator 2
 320 006e 787A     		ldrb	r0, [r7, #9]	@ zero_extendqisi2
 192:../libraries/CC3000_Host_Driver/security.c ****     state[ 9]  = sbox[(state[13] ^ expandedKey[(round*16) + 13])];
 193:../libraries/CC3000_Host_Driver/security.c ****     state[13]  = sbox[buf1];
 321              		.loc 1 193 0 discriminator 2
 322 0070 F318     		adds	r3, r6, r3
 323              	.LVL12:
 191:../libraries/CC3000_Host_Driver/security.c ****     state[ 5]  = sbox[(state[ 9] ^ expandedKey[(round*16) +  9])];
 324              		.loc 1 191 0 discriminator 2
 325 0072 4840     		eors	r0, r0, r1
 326 0074 3118     		adds	r1, r6, r0
 327 0076 C87A     		ldrb	r0, [r1, #11]	@ zero_extendqisi2
 192:../libraries/CC3000_Host_Driver/security.c ****     state[ 9]  = sbox[(state[13] ^ expandedKey[(round*16) + 13])];
 328              		.loc 1 192 0 discriminator 2
 329 0078 617B     		ldrb	r1, [r4, #13]	@ zero_extendqisi2
 191:../libraries/CC3000_Host_Driver/security.c ****     state[ 5]  = sbox[(state[ 9] ^ expandedKey[(round*16) +  9])];
 330              		.loc 1 191 0 discriminator 2
 331 007a 6071     		strb	r0, [r4, #5]
 332 007c 0690     		str	r0, [sp, #24]
 192:../libraries/CC3000_Host_Driver/security.c ****     state[ 9]  = sbox[(state[13] ^ expandedKey[(round*16) + 13])];
 333              		.loc 1 192 0 discriminator 2
 334 007e 787B     		ldrb	r0, [r7, #13]	@ zero_extendqisi2
 335 0080 4840     		eors	r0, r0, r1
 336 0082 3118     		adds	r1, r6, r0
 337 0084 C87A     		ldrb	r0, [r1, #11]	@ zero_extendqisi2
 338 0086 0990     		str	r0, [sp, #36]
 339 0088 6072     		strb	r0, [r4, #9]
 340              		.loc 1 193 0 discriminator 2
 341 008a D97A     		ldrb	r1, [r3, #11]	@ zero_extendqisi2
 194:../libraries/CC3000_Host_Driver/security.c ****     // row 2
 195:../libraries/CC3000_Host_Driver/security.c ****     buf1 = state[2] ^ expandedKey[(round*16) + 2];
 342              		.loc 1 195 0 discriminator 2
 343 008c A378     		ldrb	r3, [r4, #2]	@ zero_extendqisi2
 193:../libraries/CC3000_Host_Driver/security.c ****     state[13]  = sbox[buf1];
 344              		.loc 1 193 0 discriminator 2
 345 008e 6173     		strb	r1, [r4, #13]
 346              		.loc 1 195 0 discriminator 2
 347 0090 B878     		ldrb	r0, [r7, #2]	@ zero_extendqisi2
 193:../libraries/CC3000_Host_Driver/security.c ****     state[13]  = sbox[buf1];
 348              		.loc 1 193 0 discriminator 2
 349 0092 0A91     		str	r1, [sp, #40]
 350              		.loc 1 195 0 discriminator 2
 351 0094 5840     		eors	r0, r0, r3
 352              	.LVL13:
 196:../libraries/CC3000_Host_Driver/security.c ****     buf2 = state[6] ^ expandedKey[(round*16) + 6];
 353              		.loc 1 196 0 discriminator 2
 354 0096 B979     		ldrb	r1, [r7, #6]	@ zero_extendqisi2
 355 0098 A379     		ldrb	r3, [r4, #6]	@ zero_extendqisi2
 197:../libraries/CC3000_Host_Driver/security.c ****     state[ 2]  = sbox[(state[10] ^ expandedKey[(round*16) + 10])];
 356              		.loc 1 197 0 discriminator 2
 357 009a 97F80AE0 		ldrb	lr, [r7, #10]	@ zero_extendqisi2
 196:../libraries/CC3000_Host_Driver/security.c ****     buf2 = state[6] ^ expandedKey[(round*16) + 6];
 358              		.loc 1 196 0 discriminator 2
 359 009e 5940     		eors	r1, r1, r3
 360              	.LVL14:
 361              		.loc 1 197 0 discriminator 2
 362 00a0 A37A     		ldrb	r3, [r4, #10]	@ zero_extendqisi2
 198:../libraries/CC3000_Host_Driver/security.c ****     state[ 6]  = sbox[(state[14] ^ expandedKey[(round*16) + 14])];
 363              		.loc 1 198 0 discriminator 2
 364 00a2 94F80E80 		ldrb	r8, [r4, #14]	@ zero_extendqisi2
 197:../libraries/CC3000_Host_Driver/security.c ****     state[ 2]  = sbox[(state[10] ^ expandedKey[(round*16) + 10])];
 365              		.loc 1 197 0 discriminator 2
 366 00a6 8EEA0303 		eor	r3, lr, r3
 367 00aa F318     		adds	r3, r6, r3
 368 00ac DB7A     		ldrb	r3, [r3, #11]	@ zero_extendqisi2
 199:../libraries/CC3000_Host_Driver/security.c ****     state[10]  = sbox[buf1];
 369              		.loc 1 199 0 discriminator 2
 370 00ae 3018     		adds	r0, r6, r0
 371              	.LVL15:
 197:../libraries/CC3000_Host_Driver/security.c ****     state[ 2]  = sbox[(state[10] ^ expandedKey[(round*16) + 10])];
 372              		.loc 1 197 0 discriminator 2
 373 00b0 A370     		strb	r3, [r4, #2]
 198:../libraries/CC3000_Host_Driver/security.c ****     state[ 6]  = sbox[(state[14] ^ expandedKey[(round*16) + 14])];
 374              		.loc 1 198 0 discriminator 2
 375 00b2 97F80EC0 		ldrb	ip, [r7, #14]	@ zero_extendqisi2
 376              		.loc 1 199 0 discriminator 2
 377 00b6 C07A     		ldrb	r0, [r0, #11]	@ zero_extendqisi2
 198:../libraries/CC3000_Host_Driver/security.c ****     state[ 6]  = sbox[(state[14] ^ expandedKey[(round*16) + 14])];
 378              		.loc 1 198 0 discriminator 2
 379 00b8 8CEA0809 		eor	r9, ip, r8
 380 00bc 06EB090E 		add	lr, r6, r9
 200:../libraries/CC3000_Host_Driver/security.c ****     state[14]  = sbox[buf2];
 381              		.loc 1 200 0 discriminator 2
 382 00c0 7118     		adds	r1, r6, r1
 383              	.LVL16:
 198:../libraries/CC3000_Host_Driver/security.c ****     state[ 6]  = sbox[(state[14] ^ expandedKey[(round*16) + 14])];
 384              		.loc 1 198 0 discriminator 2
 385 00c2 9EF80B80 		ldrb	r8, [lr, #11]	@ zero_extendqisi2
 199:../libraries/CC3000_Host_Driver/security.c ****     state[10]  = sbox[buf1];
 386              		.loc 1 199 0 discriminator 2
 387 00c6 A072     		strb	r0, [r4, #10]
 388 00c8 0B90     		str	r0, [sp, #44]
 389              		.loc 1 200 0 discriminator 2
 390 00ca C87A     		ldrb	r0, [r1, #11]	@ zero_extendqisi2
 198:../libraries/CC3000_Host_Driver/security.c ****     state[ 6]  = sbox[(state[14] ^ expandedKey[(round*16) + 14])];
 391              		.loc 1 198 0 discriminator 2
 392 00cc 84F80680 		strb	r8, [r4, #6]
 393              		.loc 1 200 0 discriminator 2
 394 00d0 A073     		strb	r0, [r4, #14]
 201:../libraries/CC3000_Host_Driver/security.c ****     // row 3
 202:../libraries/CC3000_Host_Driver/security.c ****     buf1 = state[15] ^ expandedKey[(round*16) + 15];
 395              		.loc 1 202 0 discriminator 2
 396 00d2 E17B     		ldrb	r1, [r4, #15]	@ zero_extendqisi2
 200:../libraries/CC3000_Host_Driver/security.c ****     state[14]  = sbox[buf2];
 397              		.loc 1 200 0 discriminator 2
 398 00d4 0C90     		str	r0, [sp, #48]
 399              		.loc 1 202 0 discriminator 2
 400 00d6 F87B     		ldrb	r0, [r7, #15]	@ zero_extendqisi2
 203:../libraries/CC3000_Host_Driver/security.c ****     state[15]  = sbox[(state[11] ^ expandedKey[(round*16) + 11])];
 401              		.loc 1 203 0 discriminator 2
 402 00d8 97F80BC0 		ldrb	ip, [r7, #11]	@ zero_extendqisi2
 202:../libraries/CC3000_Host_Driver/security.c ****     buf1 = state[15] ^ expandedKey[(round*16) + 15];
 403              		.loc 1 202 0 discriminator 2
 404 00dc 4140     		eors	r1, r1, r0
 405              	.LVL17:
 406              		.loc 1 203 0 discriminator 2
 407 00de E07A     		ldrb	r0, [r4, #11]	@ zero_extendqisi2
 204:../libraries/CC3000_Host_Driver/security.c ****     state[11]  = sbox[(state[ 7] ^ expandedKey[(round*16) +  7])];
 205:../libraries/CC3000_Host_Driver/security.c ****     state[ 7]  = sbox[(state[ 3] ^ expandedKey[(round*16) +  3])];
 206:../libraries/CC3000_Host_Driver/security.c ****     state[ 3]  = sbox[buf1];
 408              		.loc 1 206 0 discriminator 2
 409 00e0 7118     		adds	r1, r6, r1
 410              	.LVL18:
 203:../libraries/CC3000_Host_Driver/security.c ****     state[15]  = sbox[(state[11] ^ expandedKey[(round*16) + 11])];
 411              		.loc 1 203 0 discriminator 2
 412 00e2 8CEA0000 		eor	r0, ip, r0
 413 00e6 3018     		adds	r0, r6, r0
 414 00e8 C07A     		ldrb	r0, [r0, #11]	@ zero_extendqisi2
 415 00ea E073     		strb	r0, [r4, #15]
 204:../libraries/CC3000_Host_Driver/security.c ****     state[11]  = sbox[(state[ 7] ^ expandedKey[(round*16) +  7])];
 416              		.loc 1 204 0 discriminator 2
 417 00ec 97F80790 		ldrb	r9, [r7, #7]	@ zero_extendqisi2
 203:../libraries/CC3000_Host_Driver/security.c ****     state[15]  = sbox[(state[11] ^ expandedKey[(round*16) + 11])];
 418              		.loc 1 203 0 discriminator 2
 419 00f0 0D90     		str	r0, [sp, #52]
 204:../libraries/CC3000_Host_Driver/security.c ****     state[11]  = sbox[(state[ 7] ^ expandedKey[(round*16) +  7])];
 420              		.loc 1 204 0 discriminator 2
 421 00f2 E079     		ldrb	r0, [r4, #7]	@ zero_extendqisi2
 422 00f4 89EA0000 		eor	r0, r9, r0
 423 00f8 3018     		adds	r0, r6, r0
 424 00fa C07A     		ldrb	r0, [r0, #11]	@ zero_extendqisi2
 425 00fc E072     		strb	r0, [r4, #11]
 205:../libraries/CC3000_Host_Driver/security.c ****     state[ 7]  = sbox[(state[ 3] ^ expandedKey[(round*16) +  3])];
 426              		.loc 1 205 0 discriminator 2
 427 00fe 97F803E0 		ldrb	lr, [r7, #3]	@ zero_extendqisi2
 204:../libraries/CC3000_Host_Driver/security.c ****     state[11]  = sbox[(state[ 7] ^ expandedKey[(round*16) +  7])];
 428              		.loc 1 204 0 discriminator 2
 429 0102 0F90     		str	r0, [sp, #60]
 205:../libraries/CC3000_Host_Driver/security.c ****     state[ 7]  = sbox[(state[ 3] ^ expandedKey[(round*16) +  3])];
 430              		.loc 1 205 0 discriminator 2
 431 0104 E078     		ldrb	r0, [r4, #3]	@ zero_extendqisi2
 432 0106 1037     		adds	r7, r7, #16
 433              	.LVL19:
 434 0108 8EEA0000 		eor	r0, lr, r0
 435 010c 3018     		adds	r0, r6, r0
 436 010e C07A     		ldrb	r0, [r0, #11]	@ zero_extendqisi2
 437 0110 0E90     		str	r0, [sp, #56]
 438              		.loc 1 206 0 discriminator 2
 439 0112 C97A     		ldrb	r1, [r1, #11]	@ zero_extendqisi2
 207:../libraries/CC3000_Host_Driver/security.c ****     
 208:../libraries/CC3000_Host_Driver/security.c ****     // mixcolums //////////
 209:../libraries/CC3000_Host_Driver/security.c ****     // col1
 210:../libraries/CC3000_Host_Driver/security.c ****     buf1 = state[0] ^ state[1] ^ state[2] ^ state[3];
 440              		.loc 1 210 0 discriminator 2
 441 0114 82EA0A00 		eor	r0, r2, sl
 442 0118 81EA030C 		eor	ip, r1, r3
 443 011c 8CEA0009 		eor	r9, ip, r0
 444              	.LVL20:
 211:../libraries/CC3000_Host_Driver/security.c ****     buf2 = state[0];
 212:../libraries/CC3000_Host_Driver/security.c ****     buf3 = state[0]^state[1]; buf3=galois_mul2(buf3); state[0] = state[0] ^ buf3 ^ buf1;
 445              		.loc 1 212 0 discriminator 2
 446 0120 CDF808C0 		str	ip, [sp, #8]
 447 0124 0591     		str	r1, [sp, #20]
 448 0126 0492     		str	r2, [sp, #16]
 449 0128 0393     		str	r3, [sp, #12]
 450 012a FFF7FEFF 		bl	galois_mul2
 451              	.LVL21:
 452 012e 8AEA0002 		eor	r2, sl, r0
 453 0132 89EA0203 		eor	r3, r9, r2
 213:../libraries/CC3000_Host_Driver/security.c ****     buf3 = state[1]^state[2]; buf3=galois_mul2(buf3); state[1] = state[1] ^ buf3 ^ buf1;
 454              		.loc 1 213 0 discriminator 2
 455 0136 0499     		ldr	r1, [sp, #16]
 456 0138 039A     		ldr	r2, [sp, #12]
 212:../libraries/CC3000_Host_Driver/security.c ****     buf3 = state[0]^state[1]; buf3=galois_mul2(buf3); state[0] = state[0] ^ buf3 ^ buf1;
 457              		.loc 1 212 0 discriminator 2
 458 013a D8B2     		uxtb	r0, r3
 459 013c 1090     		str	r0, [sp, #64]
 460 013e 2070     		strb	r0, [r4, #0]
 461              		.loc 1 213 0 discriminator 2
 462 0140 82EA0100 		eor	r0, r2, r1
 463 0144 FFF7FEFF 		bl	galois_mul2
 464              	.LVL22:
 465 0148 049B     		ldr	r3, [sp, #16]
 214:../libraries/CC3000_Host_Driver/security.c ****     buf3 = state[2]^state[3]; buf3=galois_mul2(buf3); state[2] = state[2] ^ buf3 ^ buf1;
 466              		.loc 1 214 0 discriminator 2
 467 014a DDF808C0 		ldr	ip, [sp, #8]
 213:../libraries/CC3000_Host_Driver/security.c ****     buf3 = state[1]^state[2]; buf3=galois_mul2(buf3); state[1] = state[1] ^ buf3 ^ buf1;
 468              		.loc 1 213 0 discriminator 2
 469 014e 5840     		eors	r0, r0, r3
 470              	.LVL23:
 471 0150 89EA0001 		eor	r1, r9, r0
 472 0154 CAB2     		uxtb	r2, r1
 473              		.loc 1 214 0 discriminator 2
 474 0156 6046     		mov	r0, ip
 213:../libraries/CC3000_Host_Driver/security.c ****     buf3 = state[1]^state[2]; buf3=galois_mul2(buf3); state[1] = state[1] ^ buf3 ^ buf1;
 475              		.loc 1 213 0 discriminator 2
 476 0158 6270     		strb	r2, [r4, #1]
 477              	.LVL24:
 478 015a 1192     		str	r2, [sp, #68]
 479              		.loc 1 214 0 discriminator 2
 480 015c FFF7FEFF 		bl	galois_mul2
 481              	.LVL25:
 482 0160 039B     		ldr	r3, [sp, #12]
 483 0162 5840     		eors	r0, r0, r3
 484 0164 89EA0001 		eor	r1, r9, r0
 215:../libraries/CC3000_Host_Driver/security.c ****     buf3 = state[3]^buf2;     buf3=galois_mul2(buf3); state[3] = state[3] ^ buf3 ^ buf1;
 485              		.loc 1 215 0 discriminator 2
 486 0168 059B     		ldr	r3, [sp, #20]
 214:../libraries/CC3000_Host_Driver/security.c ****     buf3 = state[2]^state[3]; buf3=galois_mul2(buf3); state[2] = state[2] ^ buf3 ^ buf1;
 487              		.loc 1 214 0 discriminator 2
 488 016a CAB2     		uxtb	r2, r1
 489 016c A270     		strb	r2, [r4, #2]
 490              		.loc 1 215 0 discriminator 2
 491 016e 83EA0A00 		eor	r0, r3, sl
 214:../libraries/CC3000_Host_Driver/security.c ****     buf3 = state[2]^state[3]; buf3=galois_mul2(buf3); state[2] = state[2] ^ buf3 ^ buf1;
 492              		.loc 1 214 0 discriminator 2
 493 0172 1292     		str	r2, [sp, #72]
 494              		.loc 1 215 0 discriminator 2
 495 0174 FFF7FEFF 		bl	galois_mul2
 496              	.LVL26:
 497 0178 0599     		ldr	r1, [sp, #20]
 216:../libraries/CC3000_Host_Driver/security.c ****     // col2
 217:../libraries/CC3000_Host_Driver/security.c ****     buf1 = state[4] ^ state[5] ^ state[6] ^ state[7];
 498              		.loc 1 217 0 discriminator 2
 499 017a 069B     		ldr	r3, [sp, #24]
 215:../libraries/CC3000_Host_Driver/security.c ****     buf3 = state[3]^buf2;     buf3=galois_mul2(buf3); state[3] = state[3] ^ buf3 ^ buf1;
 500              		.loc 1 215 0 discriminator 2
 501 017c 4840     		eors	r0, r0, r1
 502              	.LVL27:
 503              		.loc 1 217 0 discriminator 2
 504 017e DDF838C0 		ldr	ip, [sp, #56]
 215:../libraries/CC3000_Host_Driver/security.c ****     buf3 = state[3]^buf2;     buf3=galois_mul2(buf3); state[3] = state[3] ^ buf3 ^ buf1;
 505              		.loc 1 215 0 discriminator 2
 506 0182 89EA000A 		eor	sl, r9, r0
 507              	.LVL28:
 508 0186 5FFA8AF9 		uxtb	r9, sl
 509              	.LVL29:
 510              		.loc 1 217 0 discriminator 2
 511 018a 83EA0B00 		eor	r0, r3, fp
 512 018e 8CEA080A 		eor	sl, ip, r8
 215:../libraries/CC3000_Host_Driver/security.c ****     buf3 = state[3]^buf2;     buf3=galois_mul2(buf3); state[3] = state[3] ^ buf3 ^ buf1;
 513              		.loc 1 215 0 discriminator 2
 514 0192 84F80390 		strb	r9, [r4, #3]
 515 0196 CDF84C90 		str	r9, [sp, #76]
 516              		.loc 1 217 0 discriminator 2
 517 019a 8AEA0009 		eor	r9, sl, r0
 518              	.LVL30:
 218:../libraries/CC3000_Host_Driver/security.c ****     buf2 = state[4];
 219:../libraries/CC3000_Host_Driver/security.c ****     buf3 = state[4]^state[5]; buf3=galois_mul2(buf3); state[4] = state[4] ^ buf3 ^ buf1;
 519              		.loc 1 219 0 discriminator 2
 520 019e FFF7FEFF 		bl	galois_mul2
 521              	.LVL31:
 522 01a2 8BEA0001 		eor	r1, fp, r0
 523 01a6 89EA0100 		eor	r0, r9, r1
 220:../libraries/CC3000_Host_Driver/security.c ****     buf3 = state[5]^state[6]; buf3=galois_mul2(buf3); state[5] = state[5] ^ buf3 ^ buf1;
 524              		.loc 1 220 0 discriminator 2
 525 01aa 069A     		ldr	r2, [sp, #24]
 219:../libraries/CC3000_Host_Driver/security.c ****     buf3 = state[4]^state[5]; buf3=galois_mul2(buf3); state[4] = state[4] ^ buf3 ^ buf1;
 526              		.loc 1 219 0 discriminator 2
 527 01ac 5FFA80FC 		uxtb	ip, r0
 528 01b0 84F804C0 		strb	ip, [r4, #4]
 529              		.loc 1 220 0 discriminator 2
 530 01b4 88EA0200 		eor	r0, r8, r2
 531 01b8 CDF808C0 		str	ip, [sp, #8]
 532 01bc FFF7FEFF 		bl	galois_mul2
 533              	.LVL32:
 534 01c0 069B     		ldr	r3, [sp, #24]
 535 01c2 83EA0001 		eor	r1, r3, r0
 536 01c6 89EA0100 		eor	r0, r9, r1
 537              	.LVL33:
 538 01ca C2B2     		uxtb	r2, r0
 539 01cc 6271     		strb	r2, [r4, #5]
 540              	.LVL34:
 221:../libraries/CC3000_Host_Driver/security.c ****     buf3 = state[6]^state[7]; buf3=galois_mul2(buf3); state[6] = state[6] ^ buf3 ^ buf1;
 541              		.loc 1 221 0 discriminator 2
 542 01ce 5046     		mov	r0, sl
 220:../libraries/CC3000_Host_Driver/security.c ****     buf3 = state[5]^state[6]; buf3=galois_mul2(buf3); state[5] = state[5] ^ buf3 ^ buf1;
 543              		.loc 1 220 0 discriminator 2
 544 01d0 0692     		str	r2, [sp, #24]
 545              		.loc 1 221 0 discriminator 2
 546 01d2 FFF7FEFF 		bl	galois_mul2
 547              	.LVL35:
 548 01d6 88EA0003 		eor	r3, r8, r0
 549 01da 89EA0308 		eor	r8, r9, r3
 550 01de 5FFA88FA 		uxtb	sl, r8
 222:../libraries/CC3000_Host_Driver/security.c ****     buf3 = state[7]^buf2;     buf3=galois_mul2(buf3); state[7] = state[7] ^ buf3 ^ buf1;
 551              		.loc 1 222 0 discriminator 2
 552 01e2 DDF83880 		ldr	r8, [sp, #56]
 221:../libraries/CC3000_Host_Driver/security.c ****     buf3 = state[6]^state[7]; buf3=galois_mul2(buf3); state[6] = state[6] ^ buf3 ^ buf1;
 553              		.loc 1 221 0 discriminator 2
 554 01e6 84F806A0 		strb	sl, [r4, #6]
 555              		.loc 1 222 0 discriminator 2
 556 01ea 88EA0B00 		eor	r0, r8, fp
 221:../libraries/CC3000_Host_Driver/security.c ****     buf3 = state[6]^state[7]; buf3=galois_mul2(buf3); state[6] = state[6] ^ buf3 ^ buf1;
 557              		.loc 1 221 0 discriminator 2
 558 01ee CDF850A0 		str	sl, [sp, #80]
 559              		.loc 1 222 0 discriminator 2
 560 01f2 FFF7FEFF 		bl	galois_mul2
 561              	.LVL36:
 562 01f6 88EA0000 		eor	r0, r8, r0
 563              	.LVL37:
 223:../libraries/CC3000_Host_Driver/security.c ****     // col3
 224:../libraries/CC3000_Host_Driver/security.c ****     buf1 = state[8] ^ state[9] ^ state[10] ^ state[11];
 564              		.loc 1 224 0 discriminator 2
 565 01fa DDF82CC0 		ldr	ip, [sp, #44]
 566 01fe 0F99     		ldr	r1, [sp, #60]
 567 0200 079B     		ldr	r3, [sp, #28]
 222:../libraries/CC3000_Host_Driver/security.c ****     buf3 = state[7]^buf2;     buf3=galois_mul2(buf3); state[7] = state[7] ^ buf3 ^ buf1;
 568              		.loc 1 222 0 discriminator 2
 569 0202 89EA000B 		eor	fp, r9, r0
 570              	.LVL38:
 571              		.loc 1 224 0 discriminator 2
 572 0206 0998     		ldr	r0, [sp, #36]
 222:../libraries/CC3000_Host_Driver/security.c ****     buf3 = state[7]^buf2;     buf3=galois_mul2(buf3); state[7] = state[7] ^ buf3 ^ buf1;
 573              		.loc 1 222 0 discriminator 2
 574 0208 5FFA8BF9 		uxtb	r9, fp
 575              	.LVL39:
 576              		.loc 1 224 0 discriminator 2
 577 020c 81EA0C0A 		eor	sl, r1, ip
 578 0210 5840     		eors	r0, r0, r3
 222:../libraries/CC3000_Host_Driver/security.c ****     buf3 = state[7]^buf2;     buf3=galois_mul2(buf3); state[7] = state[7] ^ buf3 ^ buf1;
 579              		.loc 1 222 0 discriminator 2
 580 0212 84F80790 		strb	r9, [r4, #7]
 581              		.loc 1 224 0 discriminator 2
 582 0216 8AEA0008 		eor	r8, sl, r0
 583              	.LVL40:
 222:../libraries/CC3000_Host_Driver/security.c ****     buf3 = state[7]^buf2;     buf3=galois_mul2(buf3); state[7] = state[7] ^ buf3 ^ buf1;
 584              		.loc 1 222 0 discriminator 2
 585 021a CDF83890 		str	r9, [sp, #56]
 225:../libraries/CC3000_Host_Driver/security.c ****     buf2 = state[8];
 226:../libraries/CC3000_Host_Driver/security.c ****     buf3 = state[8]^state[9];   buf3=galois_mul2(buf3); state[8] = state[8] ^ buf3 ^ buf1;
 586              		.loc 1 226 0 discriminator 2
 587 021e FFF7FEFF 		bl	galois_mul2
 588              	.LVL41:
 589 0222 079A     		ldr	r2, [sp, #28]
 227:../libraries/CC3000_Host_Driver/security.c ****     buf3 = state[9]^state[10];  buf3=galois_mul2(buf3); state[9] = state[9] ^ buf3 ^ buf1;
 590              		.loc 1 227 0 discriminator 2
 591 0224 099B     		ldr	r3, [sp, #36]
 226:../libraries/CC3000_Host_Driver/security.c ****     buf3 = state[8]^state[9];   buf3=galois_mul2(buf3); state[8] = state[8] ^ buf3 ^ buf1;
 592              		.loc 1 226 0 discriminator 2
 593 0226 5040     		eors	r0, r0, r2
 594 0228 88EA000B 		eor	fp, r8, r0
 595              		.loc 1 227 0 discriminator 2
 596 022c 0B98     		ldr	r0, [sp, #44]
 226:../libraries/CC3000_Host_Driver/security.c ****     buf3 = state[8]^state[9];   buf3=galois_mul2(buf3); state[8] = state[8] ^ buf3 ^ buf1;
 597              		.loc 1 226 0 discriminator 2
 598 022e 5FFA8BFB 		uxtb	fp, fp
 599              		.loc 1 227 0 discriminator 2
 600 0232 5840     		eors	r0, r0, r3
 226:../libraries/CC3000_Host_Driver/security.c ****     buf3 = state[8]^state[9];   buf3=galois_mul2(buf3); state[8] = state[8] ^ buf3 ^ buf1;
 601              		.loc 1 226 0 discriminator 2
 602 0234 84F808B0 		strb	fp, [r4, #8]
 603              		.loc 1 227 0 discriminator 2
 604 0238 FFF7FEFF 		bl	galois_mul2
 605              	.LVL42:
 606 023c 0999     		ldr	r1, [sp, #36]
 607 023e 81EA0002 		eor	r2, r1, r0
 608 0242 88EA0200 		eor	r0, r8, r2
 609              	.LVL43:
 610 0246 C3B2     		uxtb	r3, r0
 611 0248 6372     		strb	r3, [r4, #9]
 612              	.LVL44:
 228:../libraries/CC3000_Host_Driver/security.c ****     buf3 = state[10]^state[11]; buf3=galois_mul2(buf3); state[10] = state[10] ^ buf3 ^ buf1;
 613              		.loc 1 228 0 discriminator 2
 614 024a 5046     		mov	r0, sl
 227:../libraries/CC3000_Host_Driver/security.c ****     buf3 = state[9]^state[10];  buf3=galois_mul2(buf3); state[9] = state[9] ^ buf3 ^ buf1;
 615              		.loc 1 227 0 discriminator 2
 616 024c 0193     		str	r3, [sp, #4]
 617              		.loc 1 228 0 discriminator 2
 618 024e FFF7FEFF 		bl	galois_mul2
 619              	.LVL45:
 620 0252 DDF82C90 		ldr	r9, [sp, #44]
 621 0256 89EA0001 		eor	r1, r9, r0
 622 025a 88EA0102 		eor	r2, r8, r1
 623 025e D0B2     		uxtb	r0, r2
 624              	.LVL46:
 625 0260 0990     		str	r0, [sp, #36]
 626              	.LVL47:
 229:../libraries/CC3000_Host_Driver/security.c ****     buf3 = state[11]^buf2;      buf3=galois_mul2(buf3); state[11] = state[11] ^ buf3 ^ buf1;
 627              		.loc 1 229 0 discriminator 2
 628 0262 079B     		ldr	r3, [sp, #28]
 228:../libraries/CC3000_Host_Driver/security.c ****     buf3 = state[10]^state[11]; buf3=galois_mul2(buf3); state[10] = state[10] ^ buf3 ^ buf1;
 629              		.loc 1 228 0 discriminator 2
 630 0264 A072     		strb	r0, [r4, #10]
 631              		.loc 1 229 0 discriminator 2
 632 0266 0F98     		ldr	r0, [sp, #60]
 633 0268 5840     		eors	r0, r0, r3
 634 026a FFF7FEFF 		bl	galois_mul2
 635              	.LVL48:
 636 026e 0F99     		ldr	r1, [sp, #60]
 230:../libraries/CC3000_Host_Driver/security.c ****     // col4
 231:../libraries/CC3000_Host_Driver/security.c ****     buf1 = state[12] ^ state[13] ^ state[14] ^ state[15];
 637              		.loc 1 231 0 discriminator 2
 638 0270 089B     		ldr	r3, [sp, #32]
 229:../libraries/CC3000_Host_Driver/security.c ****     buf3 = state[11]^buf2;      buf3=galois_mul2(buf3); state[11] = state[11] ^ buf3 ^ buf1;
 639              		.loc 1 229 0 discriminator 2
 640 0272 81EA0002 		eor	r2, r1, r0
 641 0276 88EA020C 		eor	ip, r8, r2
 642              		.loc 1 231 0 discriminator 2
 643 027a 0D99     		ldr	r1, [sp, #52]
 644 027c 0C9A     		ldr	r2, [sp, #48]
 645 027e 0A98     		ldr	r0, [sp, #40]
 646              	.LVL49:
 229:../libraries/CC3000_Host_Driver/security.c ****     buf3 = state[11]^buf2;      buf3=galois_mul2(buf3); state[11] = state[11] ^ buf3 ^ buf1;
 647              		.loc 1 229 0 discriminator 2
 648 0280 5FFA8CFA 		uxtb	sl, ip
 649              		.loc 1 231 0 discriminator 2
 650 0284 81EA0209 		eor	r9, r1, r2
 651 0288 5840     		eors	r0, r0, r3
 229:../libraries/CC3000_Host_Driver/security.c ****     buf3 = state[11]^buf2;      buf3=galois_mul2(buf3); state[11] = state[11] ^ buf3 ^ buf1;
 652              		.loc 1 229 0 discriminator 2
 653 028a 84F80BA0 		strb	sl, [r4, #11]
 654              		.loc 1 231 0 discriminator 2
 655 028e 89EA0008 		eor	r8, r9, r0
 656              	.LVL50:
 229:../libraries/CC3000_Host_Driver/security.c ****     buf3 = state[11]^buf2;      buf3=galois_mul2(buf3); state[11] = state[11] ^ buf3 ^ buf1;
 657              		.loc 1 229 0 discriminator 2
 658 0292 CDF81CA0 		str	sl, [sp, #28]
 232:../libraries/CC3000_Host_Driver/security.c ****     buf2 = state[12];
 233:../libraries/CC3000_Host_Driver/security.c ****     buf3 = state[12]^state[13]; buf3=galois_mul2(buf3); state[12] = state[12] ^ buf3 ^ buf1;
 659              		.loc 1 233 0 discriminator 2
 660 0296 FFF7FEFF 		bl	galois_mul2
 661              	.LVL51:
 662 029a 089B     		ldr	r3, [sp, #32]
 663 029c 5840     		eors	r0, r0, r3
 664 029e 88EA0001 		eor	r1, r8, r0
 234:../libraries/CC3000_Host_Driver/security.c ****     buf3 = state[13]^state[14]; buf3=galois_mul2(buf3); state[13] = state[13] ^ buf3 ^ buf1;
 665              		.loc 1 234 0 discriminator 2
 666 02a2 0A9B     		ldr	r3, [sp, #40]
 667 02a4 0C98     		ldr	r0, [sp, #48]
 233:../libraries/CC3000_Host_Driver/security.c ****     buf3 = state[12]^state[13]; buf3=galois_mul2(buf3); state[12] = state[12] ^ buf3 ^ buf1;
 668              		.loc 1 233 0 discriminator 2
 669 02a6 CAB2     		uxtb	r2, r1
 670 02a8 2273     		strb	r2, [r4, #12]
 671              		.loc 1 234 0 discriminator 2
 672 02aa 5840     		eors	r0, r0, r3
 673 02ac 0492     		str	r2, [sp, #16]
 674 02ae FFF7FEFF 		bl	galois_mul2
 675              	.LVL52:
 676 02b2 0A99     		ldr	r1, [sp, #40]
 677 02b4 4840     		eors	r0, r0, r1
 678              	.LVL53:
 679 02b6 88EA0002 		eor	r2, r8, r0
 680 02ba D3B2     		uxtb	r3, r2
 681 02bc 6373     		strb	r3, [r4, #13]
 682              	.LVL54:
 235:../libraries/CC3000_Host_Driver/security.c ****     buf3 = state[14]^state[15]; buf3=galois_mul2(buf3); state[14] = state[14] ^ buf3 ^ buf1;
 683              		.loc 1 235 0 discriminator 2
 684 02be 4846     		mov	r0, r9
 685 02c0 0393     		str	r3, [sp, #12]
 686 02c2 FFF7FEFF 		bl	galois_mul2
 687              	.LVL55:
 688 02c6 DDF830C0 		ldr	ip, [sp, #48]
 236:../libraries/CC3000_Host_Driver/security.c ****     buf3 = state[15]^buf2;      buf3=galois_mul2(buf3); state[15] = state[15] ^ buf3 ^ buf1;    
 689              		.loc 1 236 0 discriminator 2
 690 02ca 089A     		ldr	r2, [sp, #32]
 235:../libraries/CC3000_Host_Driver/security.c ****     buf3 = state[14]^state[15]; buf3=galois_mul2(buf3); state[14] = state[14] ^ buf3 ^ buf1;
 691              		.loc 1 235 0 discriminator 2
 692 02cc 8CEA0001 		eor	r1, ip, r0
 693 02d0 88EA010A 		eor	sl, r8, r1
 694              		.loc 1 236 0 discriminator 2
 695 02d4 0D98     		ldr	r0, [sp, #52]
 235:../libraries/CC3000_Host_Driver/security.c ****     buf3 = state[14]^state[15]; buf3=galois_mul2(buf3); state[14] = state[14] ^ buf3 ^ buf1;
 696              		.loc 1 235 0 discriminator 2
 697 02d6 5FFA8AFA 		uxtb	sl, sl
 698              		.loc 1 236 0 discriminator 2
 699 02da 5040     		eors	r0, r0, r2
 235:../libraries/CC3000_Host_Driver/security.c ****     buf3 = state[14]^state[15]; buf3=galois_mul2(buf3); state[14] = state[14] ^ buf3 ^ buf1;
 700              		.loc 1 235 0 discriminator 2
 701 02dc 84F80EA0 		strb	sl, [r4, #14]
 702              		.loc 1 236 0 discriminator 2
 703 02e0 FFF7FEFF 		bl	galois_mul2
 704              	.LVL56:
 705 02e4 DDF83490 		ldr	r9, [sp, #52]
 181:../libraries/CC3000_Host_Driver/security.c ****   for (round = 0; round < 9; round ++){
 706              		.loc 1 181 0 discriminator 2
 707 02e8 1599     		ldr	r1, [sp, #84]
 708              		.loc 1 236 0 discriminator 2
 709 02ea 89EA0000 		eor	r0, r9, r0
 710              	.LVL57:
 711 02ee 88EA0003 		eor	r3, r8, r0
 712 02f2 5FFA83F9 		uxtb	r9, r3
 181:../libraries/CC3000_Host_Driver/security.c ****   for (round = 0; round < 9; round ++){
 713              		.loc 1 181 0 discriminator 2
 714 02f6 8F42     		cmp	r7, r1
 715              		.loc 1 236 0 discriminator 2
 716 02f8 84F80F90 		strb	r9, [r4, #15]
 181:../libraries/CC3000_Host_Driver/security.c ****   for (round = 0; round < 9; round ++){
 717              		.loc 1 181 0 discriminator 2
 718 02fc 049A     		ldr	r2, [sp, #16]
 719 02fe 039B     		ldr	r3, [sp, #12]
 720 0300 DDF80880 		ldr	r8, [sp, #8]
 721              	.LVL58:
 722 0304 7FF485AE 		bne	.L13
 723 0308 02E0     		b	.L16
 724              	.L17:
 725 030a 00BF     		.align	2
 726              	.L15:
 727 030c 00000000 		.word	.LANCHOR0
 728              	.L16:
 237:../libraries/CC3000_Host_Driver/security.c **** 		
 238:../libraries/CC3000_Host_Driver/security.c ****   }
 239:../libraries/CC3000_Host_Driver/security.c ****   // 10th round without mixcols
 240:../libraries/CC3000_Host_Driver/security.c ****   state[ 0]  = sbox[(state[ 0] ^ expandedKey[(round*16)     ])];
 729              		.loc 1 240 0
 730 0310 95F89000 		ldrb	r0, [r5, #144]	@ zero_extendqisi2
 731 0314 109F     		ldr	r7, [sp, #64]
 732 0316 87EA0001 		eor	r1, r7, r0
 733 031a 7018     		adds	r0, r6, r1
 734 031c C77A     		ldrb	r7, [r0, #11]	@ zero_extendqisi2
 735 031e 2770     		strb	r7, [r4, #0]
 241:../libraries/CC3000_Host_Driver/security.c ****   state[ 4]  = sbox[(state[ 4] ^ expandedKey[(round*16) +  4])];
 736              		.loc 1 241 0
 737 0320 95F89410 		ldrb	r1, [r5, #148]	@ zero_extendqisi2
 240:../libraries/CC3000_Host_Driver/security.c ****   state[ 0]  = sbox[(state[ 0] ^ expandedKey[(round*16)     ])];
 738              		.loc 1 240 0
 739 0324 0897     		str	r7, [sp, #32]
 740              		.loc 1 241 0
 741 0326 88EA0100 		eor	r0, r8, r1
 742 032a 3718     		adds	r7, r6, r0
 743 032c F97A     		ldrb	r1, [r7, #11]	@ zero_extendqisi2
 744 032e 2171     		strb	r1, [r4, #4]
 242:../libraries/CC3000_Host_Driver/security.c ****   state[ 8]  = sbox[(state[ 8] ^ expandedKey[(round*16) +  8])];
 745              		.loc 1 242 0
 746 0330 95F89800 		ldrb	r0, [r5, #152]	@ zero_extendqisi2
 241:../libraries/CC3000_Host_Driver/security.c ****   state[ 4]  = sbox[(state[ 4] ^ expandedKey[(round*16) +  4])];
 747              		.loc 1 241 0
 748 0334 0A91     		str	r1, [sp, #40]
 749              		.loc 1 242 0
 750 0336 8BEA0007 		eor	r7, fp, r0
 751 033a F119     		adds	r1, r6, r7
 752 033c C87A     		ldrb	r0, [r1, #11]	@ zero_extendqisi2
 243:../libraries/CC3000_Host_Driver/security.c ****   state[12]  = sbox[(state[12] ^ expandedKey[(round*16) + 12])];
 244:../libraries/CC3000_Host_Driver/security.c ****   // row 1
 245:../libraries/CC3000_Host_Driver/security.c ****   buf1 = state[1] ^ expandedKey[(round*16) + 1];
 753              		.loc 1 245 0
 754 033e DDF844B0 		ldr	fp, [sp, #68]
 242:../libraries/CC3000_Host_Driver/security.c ****   state[ 8]  = sbox[(state[ 8] ^ expandedKey[(round*16) +  8])];
 755              		.loc 1 242 0
 756 0342 2072     		strb	r0, [r4, #8]
 243:../libraries/CC3000_Host_Driver/security.c ****   state[12]  = sbox[(state[12] ^ expandedKey[(round*16) + 12])];
 757              		.loc 1 243 0
 758 0344 95F89C70 		ldrb	r7, [r5, #156]	@ zero_extendqisi2
 242:../libraries/CC3000_Host_Driver/security.c ****   state[ 8]  = sbox[(state[ 8] ^ expandedKey[(round*16) +  8])];
 759              		.loc 1 242 0
 760 0348 0B90     		str	r0, [sp, #44]
 243:../libraries/CC3000_Host_Driver/security.c ****   state[12]  = sbox[(state[12] ^ expandedKey[(round*16) + 12])];
 761              		.loc 1 243 0
 762 034a 7A40     		eors	r2, r2, r7
 763 034c B218     		adds	r2, r6, r2
 764 034e D17A     		ldrb	r1, [r2, #11]	@ zero_extendqisi2
 765 0350 2173     		strb	r1, [r4, #12]
 766              		.loc 1 245 0
 767 0352 95F89100 		ldrb	r0, [r5, #145]	@ zero_extendqisi2
 246:../libraries/CC3000_Host_Driver/security.c ****   state[ 1]  = sbox[(state[ 5] ^ expandedKey[(round*16) +  5])];
 768              		.loc 1 246 0
 769 0356 95F89520 		ldrb	r2, [r5, #149]	@ zero_extendqisi2
 243:../libraries/CC3000_Host_Driver/security.c ****   state[12]  = sbox[(state[12] ^ expandedKey[(round*16) + 12])];
 770              		.loc 1 243 0
 771 035a 0C91     		str	r1, [sp, #48]
 772              		.loc 1 246 0
 773 035c 0699     		ldr	r1, [sp, #24]
 245:../libraries/CC3000_Host_Driver/security.c ****   buf1 = state[1] ^ expandedKey[(round*16) + 1];
 774              		.loc 1 245 0
 775 035e 8BEA0007 		eor	r7, fp, r0
 776              	.LVL59:
 777              		.loc 1 246 0
 778 0362 81EA0200 		eor	r0, r1, r2
 779 0366 3218     		adds	r2, r6, r0
 780 0368 92F80BB0 		ldrb	fp, [r2, #11]	@ zero_extendqisi2
 247:../libraries/CC3000_Host_Driver/security.c ****   state[ 5]  = sbox[(state[ 9] ^ expandedKey[(round*16) +  9])];
 781              		.loc 1 247 0
 782 036c 0199     		ldr	r1, [sp, #4]
 246:../libraries/CC3000_Host_Driver/security.c ****   state[ 1]  = sbox[(state[ 5] ^ expandedKey[(round*16) +  5])];
 783              		.loc 1 246 0
 784 036e 84F801B0 		strb	fp, [r4, #1]
 785              		.loc 1 247 0
 786 0372 95F89900 		ldrb	r0, [r5, #153]	@ zero_extendqisi2
 248:../libraries/CC3000_Host_Driver/security.c ****   state[ 9]  = sbox[(state[13] ^ expandedKey[(round*16) + 13])];
 249:../libraries/CC3000_Host_Driver/security.c ****   state[13]  = sbox[buf1];
 787              		.loc 1 249 0
 788 0376 F719     		adds	r7, r6, r7
 789              	.LVL60:
 247:../libraries/CC3000_Host_Driver/security.c ****   state[ 5]  = sbox[(state[ 9] ^ expandedKey[(round*16) +  9])];
 790              		.loc 1 247 0
 791 0378 4140     		eors	r1, r1, r0
 792 037a 7218     		adds	r2, r6, r1
 793 037c D07A     		ldrb	r0, [r2, #11]	@ zero_extendqisi2
 794 037e 6071     		strb	r0, [r4, #5]
 248:../libraries/CC3000_Host_Driver/security.c ****   state[ 9]  = sbox[(state[13] ^ expandedKey[(round*16) + 13])];
 795              		.loc 1 248 0
 796 0380 95F89D10 		ldrb	r1, [r5, #157]	@ zero_extendqisi2
 247:../libraries/CC3000_Host_Driver/security.c ****   state[ 5]  = sbox[(state[ 9] ^ expandedKey[(round*16) +  9])];
 797              		.loc 1 247 0
 798 0384 0690     		str	r0, [sp, #24]
 248:../libraries/CC3000_Host_Driver/security.c ****   state[ 9]  = sbox[(state[13] ^ expandedKey[(round*16) + 13])];
 799              		.loc 1 248 0
 800 0386 4B40     		eors	r3, r3, r1
 801 0388 F318     		adds	r3, r6, r3
 802 038a DA7A     		ldrb	r2, [r3, #11]	@ zero_extendqisi2
 803              		.loc 1 249 0
 804 038c F87A     		ldrb	r0, [r7, #11]	@ zero_extendqisi2
 248:../libraries/CC3000_Host_Driver/security.c ****   state[ 9]  = sbox[(state[13] ^ expandedKey[(round*16) + 13])];
 805              		.loc 1 248 0
 806 038e 0D92     		str	r2, [sp, #52]
 807 0390 6272     		strb	r2, [r4, #9]
 808              		.loc 1 249 0
 809 0392 0F90     		str	r0, [sp, #60]
 810 0394 6073     		strb	r0, [r4, #13]
 250:../libraries/CC3000_Host_Driver/security.c ****   // row 2
 251:../libraries/CC3000_Host_Driver/security.c ****   buf1 = state[2] ^ expandedKey[(round*16) + 2];
 811              		.loc 1 251 0
 812 0396 95F89210 		ldrb	r1, [r5, #146]	@ zero_extendqisi2
 813 039a 129B     		ldr	r3, [sp, #72]
 252:../libraries/CC3000_Host_Driver/security.c ****   buf2 = state[6] ^ expandedKey[(round*16) + 6];
 253:../libraries/CC3000_Host_Driver/security.c ****   state[ 2]  = sbox[(state[10] ^ expandedKey[(round*16) + 10])];
 814              		.loc 1 253 0
 815 039c DDF824C0 		ldr	ip, [sp, #36]
 251:../libraries/CC3000_Host_Driver/security.c ****   buf1 = state[2] ^ expandedKey[(round*16) + 2];
 816              		.loc 1 251 0
 817 03a0 83EA0100 		eor	r0, r3, r1
 818              	.LVL61:
 819              		.loc 1 253 0
 820 03a4 95F89A10 		ldrb	r1, [r5, #154]	@ zero_extendqisi2
 252:../libraries/CC3000_Host_Driver/security.c ****   buf2 = state[6] ^ expandedKey[(round*16) + 6];
 821              		.loc 1 252 0
 822 03a8 95F89620 		ldrb	r2, [r5, #150]	@ zero_extendqisi2
 823 03ac 149F     		ldr	r7, [sp, #80]
 824              		.loc 1 253 0
 825 03ae 8CEA0103 		eor	r3, ip, r1
 252:../libraries/CC3000_Host_Driver/security.c ****   buf2 = state[6] ^ expandedKey[(round*16) + 6];
 826              		.loc 1 252 0
 827 03b2 7A40     		eors	r2, r2, r7
 828              	.LVL62:
 829              		.loc 1 253 0
 830 03b4 F718     		adds	r7, r6, r3
 831 03b6 97F80B80 		ldrb	r8, [r7, #11]	@ zero_extendqisi2
 254:../libraries/CC3000_Host_Driver/security.c ****   state[ 6]  = sbox[(state[14] ^ expandedKey[(round*16) + 14])];
 255:../libraries/CC3000_Host_Driver/security.c ****   state[10]  = sbox[buf1];
 832              		.loc 1 255 0
 833 03ba 3018     		adds	r0, r6, r0
 834              	.LVL63:
 253:../libraries/CC3000_Host_Driver/security.c ****   state[ 2]  = sbox[(state[10] ^ expandedKey[(round*16) + 10])];
 835              		.loc 1 253 0
 836 03bc 84F80280 		strb	r8, [r4, #2]
 254:../libraries/CC3000_Host_Driver/security.c ****   state[ 6]  = sbox[(state[14] ^ expandedKey[(round*16) + 14])];
 837              		.loc 1 254 0
 838 03c0 95F89E10 		ldrb	r1, [r5, #158]	@ zero_extendqisi2
 256:../libraries/CC3000_Host_Driver/security.c ****   state[14]  = sbox[buf2];
 839              		.loc 1 256 0
 840 03c4 B218     		adds	r2, r6, r2
 841              	.LVL64:
 254:../libraries/CC3000_Host_Driver/security.c ****   state[ 6]  = sbox[(state[14] ^ expandedKey[(round*16) + 14])];
 842              		.loc 1 254 0
 843 03c6 8AEA0103 		eor	r3, sl, r1
 844 03ca F718     		adds	r7, r6, r3
 845              		.loc 1 256 0
 846 03cc D17A     		ldrb	r1, [r2, #11]	@ zero_extendqisi2
 254:../libraries/CC3000_Host_Driver/security.c ****   state[ 6]  = sbox[(state[14] ^ expandedKey[(round*16) + 14])];
 847              		.loc 1 254 0
 848 03ce 97F80BA0 		ldrb	sl, [r7, #11]	@ zero_extendqisi2
 255:../libraries/CC3000_Host_Driver/security.c ****   state[10]  = sbox[buf1];
 849              		.loc 1 255 0
 850 03d2 90F80BC0 		ldrb	ip, [r0, #11]	@ zero_extendqisi2
 254:../libraries/CC3000_Host_Driver/security.c ****   state[ 6]  = sbox[(state[14] ^ expandedKey[(round*16) + 14])];
 851              		.loc 1 254 0
 852 03d6 84F806A0 		strb	sl, [r4, #6]
 255:../libraries/CC3000_Host_Driver/security.c ****   state[10]  = sbox[buf1];
 853              		.loc 1 255 0
 854 03da 84F80AC0 		strb	ip, [r4, #10]
 855              		.loc 1 256 0
 856 03de A173     		strb	r1, [r4, #14]
 257:../libraries/CC3000_Host_Driver/security.c ****   // row 3
 258:../libraries/CC3000_Host_Driver/security.c ****   buf1 = state[15] ^ expandedKey[(round*16) + 15];
 857              		.loc 1 258 0
 858 03e0 95F89F30 		ldrb	r3, [r5, #159]	@ zero_extendqisi2
 259:../libraries/CC3000_Host_Driver/security.c ****   state[15]  = sbox[(state[11] ^ expandedKey[(round*16) + 11])];
 859              		.loc 1 259 0
 860 03e4 95F89B70 		ldrb	r7, [r5, #155]	@ zero_extendqisi2
 258:../libraries/CC3000_Host_Driver/security.c ****   buf1 = state[15] ^ expandedKey[(round*16) + 15];
 861              		.loc 1 258 0
 862 03e8 89EA0300 		eor	r0, r9, r3
 863              	.LVL65:
 864              		.loc 1 259 0
 865 03ec DDF81C90 		ldr	r9, [sp, #28]
 256:../libraries/CC3000_Host_Driver/security.c ****   state[14]  = sbox[buf2];
 866              		.loc 1 256 0
 867 03f0 1091     		str	r1, [sp, #64]
 868              		.loc 1 259 0
 869 03f2 89EA0702 		eor	r2, r9, r7
 870 03f6 B118     		adds	r1, r6, r2
 871 03f8 CB7A     		ldrb	r3, [r1, #11]	@ zero_extendqisi2
 260:../libraries/CC3000_Host_Driver/security.c ****   state[11]  = sbox[(state[ 7] ^ expandedKey[(round*16) +  7])];
 872              		.loc 1 260 0
 873 03fa 0E9F     		ldr	r7, [sp, #56]
 259:../libraries/CC3000_Host_Driver/security.c ****   state[15]  = sbox[(state[11] ^ expandedKey[(round*16) + 11])];
 874              		.loc 1 259 0
 875 03fc E373     		strb	r3, [r4, #15]
 876              		.loc 1 260 0
 877 03fe 95F89720 		ldrb	r2, [r5, #151]	@ zero_extendqisi2
 261:../libraries/CC3000_Host_Driver/security.c ****   state[ 7]  = sbox[(state[ 3] ^ expandedKey[(round*16) +  3])];
 878              		.loc 1 261 0
 879 0402 DDF84C90 		ldr	r9, [sp, #76]
 260:../libraries/CC3000_Host_Driver/security.c ****   state[11]  = sbox[(state[ 7] ^ expandedKey[(round*16) +  7])];
 880              		.loc 1 260 0
 881 0406 87EA0201 		eor	r1, r7, r2
 882 040a 7218     		adds	r2, r6, r1
 883 040c D77A     		ldrb	r7, [r2, #11]	@ zero_extendqisi2
 884 040e E772     		strb	r7, [r4, #11]
 885              		.loc 1 261 0
 886 0410 95F89310 		ldrb	r1, [r5, #147]	@ zero_extendqisi2
 887 0414 89EA0102 		eor	r2, r9, r1
 888 0418 B118     		adds	r1, r6, r2
 262:../libraries/CC3000_Host_Driver/security.c ****   state[ 3]  = sbox[buf1];
 889              		.loc 1 262 0
 890 041a 3618     		adds	r6, r6, r0
 261:../libraries/CC3000_Host_Driver/security.c ****   state[ 7]  = sbox[(state[ 3] ^ expandedKey[(round*16) +  3])];
 891              		.loc 1 261 0
 892 041c C97A     		ldrb	r1, [r1, #11]	@ zero_extendqisi2
 893              		.loc 1 262 0
 894 041e F67A     		ldrb	r6, [r6, #11]	@ zero_extendqisi2
 261:../libraries/CC3000_Host_Driver/security.c ****   state[ 7]  = sbox[(state[ 3] ^ expandedKey[(round*16) +  3])];
 895              		.loc 1 261 0
 896 0420 E171     		strb	r1, [r4, #7]
 897              		.loc 1 262 0
 898 0422 E670     		strb	r6, [r4, #3]
 263:../libraries/CC3000_Host_Driver/security.c ****   // last addroundkey
 264:../libraries/CC3000_Host_Driver/security.c ****   state[ 0]^=expandedKey[160];
 899              		.loc 1 264 0
 900 0424 95F8A000 		ldrb	r0, [r5, #160]	@ zero_extendqisi2
 901              	.LVL66:
 902 0428 089A     		ldr	r2, [sp, #32]
 903 042a 4240     		eors	r2, r2, r0
 904 042c 2270     		strb	r2, [r4, #0]
 265:../libraries/CC3000_Host_Driver/security.c ****   state[ 1]^=expandedKey[161];
 905              		.loc 1 265 0
 906 042e 95F8A190 		ldrb	r9, [r5, #161]	@ zero_extendqisi2
 907 0432 8BEA090B 		eor	fp, fp, r9
 908 0436 84F801B0 		strb	fp, [r4, #1]
 266:../libraries/CC3000_Host_Driver/security.c ****   state[ 2]^=expandedKey[162];
 909              		.loc 1 266 0
 910 043a 95F8A200 		ldrb	r0, [r5, #162]	@ zero_extendqisi2
 267:../libraries/CC3000_Host_Driver/security.c ****   state[ 3]^=expandedKey[163];
 268:../libraries/CC3000_Host_Driver/security.c ****   state[ 4]^=expandedKey[164];
 269:../libraries/CC3000_Host_Driver/security.c ****   state[ 5]^=expandedKey[165];
 911              		.loc 1 269 0
 912 043e DDF81890 		ldr	r9, [sp, #24]
 266:../libraries/CC3000_Host_Driver/security.c ****   state[ 2]^=expandedKey[162];
 913              		.loc 1 266 0
 914 0442 88EA0008 		eor	r8, r8, r0
 915 0446 84F80280 		strb	r8, [r4, #2]
 267:../libraries/CC3000_Host_Driver/security.c ****   state[ 3]^=expandedKey[163];
 916              		.loc 1 267 0
 917 044a 95F8A320 		ldrb	r2, [r5, #163]	@ zero_extendqisi2
 268:../libraries/CC3000_Host_Driver/security.c ****   state[ 4]^=expandedKey[164];
 918              		.loc 1 268 0
 919 044e DDF82880 		ldr	r8, [sp, #40]
 267:../libraries/CC3000_Host_Driver/security.c ****   state[ 3]^=expandedKey[163];
 920              		.loc 1 267 0
 921 0452 5640     		eors	r6, r6, r2
 922 0454 E670     		strb	r6, [r4, #3]
 268:../libraries/CC3000_Host_Driver/security.c ****   state[ 4]^=expandedKey[164];
 923              		.loc 1 268 0
 924 0456 95F8A400 		ldrb	r0, [r5, #164]	@ zero_extendqisi2
 925 045a 88EA0002 		eor	r2, r8, r0
 926 045e 2271     		strb	r2, [r4, #4]
 927              		.loc 1 269 0
 928 0460 95F8A560 		ldrb	r6, [r5, #165]	@ zero_extendqisi2
 929 0464 89EA0600 		eor	r0, r9, r6
 930 0468 6071     		strb	r0, [r4, #5]
 270:../libraries/CC3000_Host_Driver/security.c ****   state[ 6]^=expandedKey[166];
 931              		.loc 1 270 0
 932 046a 95F8A620 		ldrb	r2, [r5, #166]	@ zero_extendqisi2
 271:../libraries/CC3000_Host_Driver/security.c ****   state[ 7]^=expandedKey[167];
 272:../libraries/CC3000_Host_Driver/security.c ****   state[ 8]^=expandedKey[168];
 933              		.loc 1 272 0
 934 046e 0B98     		ldr	r0, [sp, #44]
 270:../libraries/CC3000_Host_Driver/security.c ****   state[ 6]^=expandedKey[166];
 935              		.loc 1 270 0
 936 0470 8AEA020A 		eor	sl, sl, r2
 937 0474 84F806A0 		strb	sl, [r4, #6]
 271:../libraries/CC3000_Host_Driver/security.c ****   state[ 7]^=expandedKey[167];
 938              		.loc 1 271 0
 939 0478 95F8A760 		ldrb	r6, [r5, #167]	@ zero_extendqisi2
 940 047c 7140     		eors	r1, r1, r6
 941 047e E171     		strb	r1, [r4, #7]
 942              		.loc 1 272 0
 943 0480 95F8A810 		ldrb	r1, [r5, #168]	@ zero_extendqisi2
 944 0484 80EA0102 		eor	r2, r0, r1
 945 0488 2272     		strb	r2, [r4, #8]
 273:../libraries/CC3000_Host_Driver/security.c ****   state[ 9]^=expandedKey[169];
 946              		.loc 1 273 0
 947 048a 95F8A960 		ldrb	r6, [r5, #169]	@ zero_extendqisi2
 948 048e 0D99     		ldr	r1, [sp, #52]
 949 0490 81EA0600 		eor	r0, r1, r6
 950 0494 6072     		strb	r0, [r4, #9]
 274:../libraries/CC3000_Host_Driver/security.c ****   state[10]^=expandedKey[170];
 951              		.loc 1 274 0
 952 0496 95F8AA20 		ldrb	r2, [r5, #170]	@ zero_extendqisi2
 953 049a 8CEA020C 		eor	ip, ip, r2
 954 049e 84F80AC0 		strb	ip, [r4, #10]
 275:../libraries/CC3000_Host_Driver/security.c ****   state[11]^=expandedKey[171];
 955              		.loc 1 275 0
 956 04a2 95F8AB60 		ldrb	r6, [r5, #171]	@ zero_extendqisi2
 957 04a6 7740     		eors	r7, r7, r6
 958 04a8 E772     		strb	r7, [r4, #11]
 276:../libraries/CC3000_Host_Driver/security.c ****   state[12]^=expandedKey[172];
 959              		.loc 1 276 0
 960 04aa 95F8AC10 		ldrb	r1, [r5, #172]	@ zero_extendqisi2
 961 04ae 0C9E     		ldr	r6, [sp, #48]
 962 04b0 86EA0100 		eor	r0, r6, r1
 963 04b4 2073     		strb	r0, [r4, #12]
 277:../libraries/CC3000_Host_Driver/security.c ****   state[13]^=expandedKey[173];
 964              		.loc 1 277 0
 965 04b6 95F8AD20 		ldrb	r2, [r5, #173]	@ zero_extendqisi2
 966 04ba 0F99     		ldr	r1, [sp, #60]
 967 04bc 5140     		eors	r1, r1, r2
 968 04be 6173     		strb	r1, [r4, #13]
 278:../libraries/CC3000_Host_Driver/security.c ****   state[14]^=expandedKey[174]; 
 969              		.loc 1 278 0
 970 04c0 95F8AE00 		ldrb	r0, [r5, #174]	@ zero_extendqisi2
 971 04c4 109A     		ldr	r2, [sp, #64]
 972 04c6 4240     		eors	r2, r2, r0
 973 04c8 A273     		strb	r2, [r4, #14]
 279:../libraries/CC3000_Host_Driver/security.c ****   state[15]^=expandedKey[175];
 974              		.loc 1 279 0
 975 04ca 95F8AF10 		ldrb	r1, [r5, #175]	@ zero_extendqisi2
 976 04ce 4B40     		eors	r3, r3, r1
 977 04d0 E373     		strb	r3, [r4, #15]
 280:../libraries/CC3000_Host_Driver/security.c **** } 
 978              		.loc 1 280 0
 979 04d2 17B0     		add	sp, sp, #92
 980 04d4 BDE8F08F 		pop	{r4, r5, r6, r7, r8, r9, sl, fp, pc}
 981              		.cfi_endproc
 982              	.LFE2:
 984              		.section	.text.aes_decr,"ax",%progbits
 985              		.align	1
 986              		.global	aes_decr
 987              		.thumb
 988              		.thumb_func
 990              	aes_decr:
 991              	.LFB3:
 281:../libraries/CC3000_Host_Driver/security.c **** 
 282:../libraries/CC3000_Host_Driver/security.c **** //*****************************************************************************
 283:../libraries/CC3000_Host_Driver/security.c **** //
 284:../libraries/CC3000_Host_Driver/security.c **** //!  aes_decr
 285:../libraries/CC3000_Host_Driver/security.c **** //!
 286:../libraries/CC3000_Host_Driver/security.c **** //!  @param[in]  expandedKey expanded AES128 key
 287:../libraries/CC3000_Host_Driver/security.c **** //!  @param[in\out] state 16 bytes of cipher text and plain text
 288:../libraries/CC3000_Host_Driver/security.c **** //!
 289:../libraries/CC3000_Host_Driver/security.c **** //!  @return  none
 290:../libraries/CC3000_Host_Driver/security.c **** //!
 291:../libraries/CC3000_Host_Driver/security.c **** //!  @brief   internal implementation of AES128 decryption.
 292:../libraries/CC3000_Host_Driver/security.c **** //!           straight forward aes decryption implementation
 293:../libraries/CC3000_Host_Driver/security.c **** //!           the order of substeps is the exact reverse of decryption
 294:../libraries/CC3000_Host_Driver/security.c **** //!           inverse functions:
 295:../libraries/CC3000_Host_Driver/security.c **** //!            - addRoundKey is its own inverse
 296:../libraries/CC3000_Host_Driver/security.c **** //!            - rsbox is inverse of sbox
 297:../libraries/CC3000_Host_Driver/security.c **** //!            - rightshift instead of leftshift
 298:../libraries/CC3000_Host_Driver/security.c **** //!            - invMixColumns = barreto + mixColumns
 299:../libraries/CC3000_Host_Driver/security.c **** //!           no further subfunctions to save cycles for function calls
 300:../libraries/CC3000_Host_Driver/security.c **** //!           no structuring with "for (....)" to save cycles
 301:../libraries/CC3000_Host_Driver/security.c **** //!
 302:../libraries/CC3000_Host_Driver/security.c **** //*****************************************************************************
 303:../libraries/CC3000_Host_Driver/security.c **** 
 304:../libraries/CC3000_Host_Driver/security.c **** void aes_decr(unsigned char *state, unsigned char *expandedKey)
 305:../libraries/CC3000_Host_Driver/security.c **** {
 992              		.loc 1 305 0
 993              		.cfi_startproc
 994              		@ args = 0, pretend = 0, frame = 88
 995              		@ frame_needed = 0, uses_anonymous_args = 0
 996              	.LVL67:
 997 0000 2DE9F04F 		push	{r4, r5, r6, r7, r8, r9, sl, fp, lr}
 998              	.LCFI3:
 999              		.cfi_def_cfa_offset 36
 1000              		.cfi_offset 4, -36
 1001              		.cfi_offset 5, -32
 1002              		.cfi_offset 6, -28
 1003              		.cfi_offset 7, -24
 1004              		.cfi_offset 8, -20
 1005              		.cfi_offset 9, -16
 1006              		.cfi_offset 10, -12
 1007              		.cfi_offset 11, -8
 1008              		.cfi_offset 14, -4
 306:../libraries/CC3000_Host_Driver/security.c ****   unsigned char buf1, buf2, buf3;
 307:../libraries/CC3000_Host_Driver/security.c ****   signed char round;
 308:../libraries/CC3000_Host_Driver/security.c ****   round = 9;
 309:../libraries/CC3000_Host_Driver/security.c **** 	
 310:../libraries/CC3000_Host_Driver/security.c ****   // initial addroundkey
 311:../libraries/CC3000_Host_Driver/security.c ****   state[ 0]^=expandedKey[160];
 1009              		.loc 1 311 0
 1010 0004 0378     		ldrb	r3, [r0, #0]	@ zero_extendqisi2
 1011 0006 91F8A0A0 		ldrb	sl, [r1, #160]	@ zero_extendqisi2
 305:../libraries/CC3000_Host_Driver/security.c **** {
 1012              		.loc 1 305 0
 1013 000a 0446     		mov	r4, r0
 1014              		.loc 1 311 0
 1015 000c 8AEA030A 		eor	sl, sl, r3
 1016 0010 80F800A0 		strb	sl, [r0, #0]
 312:../libraries/CC3000_Host_Driver/security.c ****   state[ 1]^=expandedKey[161];
 1017              		.loc 1 312 0
 1018 0014 91F8A120 		ldrb	r2, [r1, #161]	@ zero_extendqisi2
 1019 0018 4078     		ldrb	r0, [r0, #1]	@ zero_extendqisi2
 1020              	.LVL68:
 313:../libraries/CC3000_Host_Driver/security.c ****   state[ 2]^=expandedKey[162];
 1021              		.loc 1 313 0
 1022 001a A778     		ldrb	r7, [r4, #2]	@ zero_extendqisi2
 312:../libraries/CC3000_Host_Driver/security.c ****   state[ 1]^=expandedKey[161];
 1023              		.loc 1 312 0
 1024 001c 82EA0005 		eor	r5, r2, r0
 1025 0020 6570     		strb	r5, [r4, #1]
 1026              		.loc 1 313 0
 1027 0022 91F8A260 		ldrb	r6, [r1, #162]	@ zero_extendqisi2
 314:../libraries/CC3000_Host_Driver/security.c ****   state[ 3]^=expandedKey[163];
 1028              		.loc 1 314 0
 1029 0026 E078     		ldrb	r0, [r4, #3]	@ zero_extendqisi2
 313:../libraries/CC3000_Host_Driver/security.c ****   state[ 2]^=expandedKey[162];
 1030              		.loc 1 313 0
 1031 0028 86EA0703 		eor	r3, r6, r7
 1032 002c A370     		strb	r3, [r4, #2]
 1033              		.loc 1 314 0
 1034 002e 91F8A320 		ldrb	r2, [r1, #163]	@ zero_extendqisi2
 305:../libraries/CC3000_Host_Driver/security.c **** {
 1035              		.loc 1 305 0
 1036 0032 97B0     		sub	sp, sp, #92
 1037              	.LCFI4:
 1038              		.cfi_def_cfa_offset 128
 312:../libraries/CC3000_Host_Driver/security.c ****   state[ 1]^=expandedKey[161];
 1039              		.loc 1 312 0
 1040 0034 0595     		str	r5, [sp, #20]
 1041              		.loc 1 314 0
 1042 0036 82EA0005 		eor	r5, r2, r0
 1043 003a E570     		strb	r5, [r4, #3]
 315:../libraries/CC3000_Host_Driver/security.c ****   state[ 4]^=expandedKey[164];
 1044              		.loc 1 315 0
 1045 003c 91F8A490 		ldrb	r9, [r1, #164]	@ zero_extendqisi2
 1046 0040 2679     		ldrb	r6, [r4, #4]	@ zero_extendqisi2
 313:../libraries/CC3000_Host_Driver/security.c ****   state[ 2]^=expandedKey[162];
 1047              		.loc 1 313 0
 1048 0042 0693     		str	r3, [sp, #24]
 1049              		.loc 1 315 0
 1050 0044 89EA0609 		eor	r9, r9, r6
 1051 0048 84F80490 		strb	r9, [r4, #4]
 316:../libraries/CC3000_Host_Driver/security.c ****   state[ 5]^=expandedKey[165];
 1052              		.loc 1 316 0
 1053 004c 91F8A570 		ldrb	r7, [r1, #165]	@ zero_extendqisi2
 1054 0050 6379     		ldrb	r3, [r4, #5]	@ zero_extendqisi2
 314:../libraries/CC3000_Host_Driver/security.c ****   state[ 3]^=expandedKey[163];
 1055              		.loc 1 314 0
 1056 0052 0795     		str	r5, [sp, #28]
 1057              		.loc 1 316 0
 1058 0054 87EA0302 		eor	r2, r7, r3
 1059 0058 6271     		strb	r2, [r4, #5]
 317:../libraries/CC3000_Host_Driver/security.c ****   state[ 6]^=expandedKey[166];
 1060              		.loc 1 317 0
 1061 005a 91F8A600 		ldrb	r0, [r1, #166]	@ zero_extendqisi2
 1062 005e A579     		ldrb	r5, [r4, #6]	@ zero_extendqisi2
 318:../libraries/CC3000_Host_Driver/security.c ****   state[ 7]^=expandedKey[167];
 1063              		.loc 1 318 0
 1064 0060 E379     		ldrb	r3, [r4, #7]	@ zero_extendqisi2
 317:../libraries/CC3000_Host_Driver/security.c ****   state[ 6]^=expandedKey[166];
 1065              		.loc 1 317 0
 1066 0062 80EA0506 		eor	r6, r0, r5
 1067 0066 A671     		strb	r6, [r4, #6]
 1068              		.loc 1 318 0
 1069 0068 91F8A770 		ldrb	r7, [r1, #167]	@ zero_extendqisi2
 316:../libraries/CC3000_Host_Driver/security.c ****   state[ 5]^=expandedKey[165];
 1070              		.loc 1 316 0
 1071 006c 0C92     		str	r2, [sp, #48]
 1072              		.loc 1 318 0
 1073 006e 87EA030B 		eor	fp, r7, r3
 1074 0072 84F807B0 		strb	fp, [r4, #7]
 319:../libraries/CC3000_Host_Driver/security.c ****   state[ 8]^=expandedKey[168];
 1075              		.loc 1 319 0
 1076 0076 227A     		ldrb	r2, [r4, #8]	@ zero_extendqisi2
 1077 0078 91F8A880 		ldrb	r8, [r1, #168]	@ zero_extendqisi2
 320:../libraries/CC3000_Host_Driver/security.c ****   state[ 9]^=expandedKey[169];
 1078              		.loc 1 320 0
 1079 007c 607A     		ldrb	r0, [r4, #9]	@ zero_extendqisi2
 319:../libraries/CC3000_Host_Driver/security.c ****   state[ 8]^=expandedKey[168];
 1080              		.loc 1 319 0
 1081 007e 88EA0208 		eor	r8, r8, r2
 1082 0082 84F80880 		strb	r8, [r4, #8]
 1083              		.loc 1 320 0
 1084 0086 91F8A970 		ldrb	r7, [r1, #169]	@ zero_extendqisi2
 317:../libraries/CC3000_Host_Driver/security.c ****   state[ 6]^=expandedKey[166];
 1085              		.loc 1 317 0
 1086 008a 0896     		str	r6, [sp, #32]
 1087              		.loc 1 320 0
 1088 008c 4740     		eors	r7, r7, r0
 1089 008e 6772     		strb	r7, [r4, #9]
 321:../libraries/CC3000_Host_Driver/security.c ****   state[10]^=expandedKey[170];
 1090              		.loc 1 321 0
 1091 0090 91F8AA50 		ldrb	r5, [r1, #170]	@ zero_extendqisi2
 1092 0094 A67A     		ldrb	r6, [r4, #10]	@ zero_extendqisi2
 322:../libraries/CC3000_Host_Driver/security.c ****   state[11]^=expandedKey[171];
 1093              		.loc 1 322 0
 1094 0096 E07A     		ldrb	r0, [r4, #11]	@ zero_extendqisi2
 321:../libraries/CC3000_Host_Driver/security.c ****   state[10]^=expandedKey[170];
 1095              		.loc 1 321 0
 1096 0098 85EA0603 		eor	r3, r5, r6
 1097 009c A372     		strb	r3, [r4, #10]
 1098              		.loc 1 322 0
 1099 009e 91F8AB20 		ldrb	r2, [r1, #171]	@ zero_extendqisi2
 323:../libraries/CC3000_Host_Driver/security.c ****   state[12]^=expandedKey[172];
 1100              		.loc 1 323 0
 1101 00a2 267B     		ldrb	r6, [r4, #12]	@ zero_extendqisi2
 322:../libraries/CC3000_Host_Driver/security.c ****   state[11]^=expandedKey[171];
 1102              		.loc 1 322 0
 1103 00a4 82EA0005 		eor	r5, r2, r0
 1104 00a8 E572     		strb	r5, [r4, #11]
 1105              		.loc 1 323 0
 1106 00aa 91F8ACC0 		ldrb	ip, [r1, #172]	@ zero_extendqisi2
 321:../libraries/CC3000_Host_Driver/security.c ****   state[10]^=expandedKey[170];
 1107              		.loc 1 321 0
 1108 00ae 0993     		str	r3, [sp, #36]
 1109              		.loc 1 323 0
 1110 00b0 8CEA060C 		eor	ip, ip, r6
 1111 00b4 84F80CC0 		strb	ip, [r4, #12]
 324:../libraries/CC3000_Host_Driver/security.c ****   state[13]^=expandedKey[173];
 1112              		.loc 1 324 0
 1113 00b8 91F8ADE0 		ldrb	lr, [r1, #173]	@ zero_extendqisi2
 1114 00bc 637B     		ldrb	r3, [r4, #13]	@ zero_extendqisi2
 325:../libraries/CC3000_Host_Driver/security.c ****   state[14]^=expandedKey[174]; 
 1115              		.loc 1 325 0
 1116 00be A27B     		ldrb	r2, [r4, #14]	@ zero_extendqisi2
 324:../libraries/CC3000_Host_Driver/security.c ****   state[13]^=expandedKey[173];
 1117              		.loc 1 324 0
 1118 00c0 8EEA030E 		eor	lr, lr, r3
 1119 00c4 84F80DE0 		strb	lr, [r4, #13]
 322:../libraries/CC3000_Host_Driver/security.c ****   state[11]^=expandedKey[171];
 1120              		.loc 1 322 0
 1121 00c8 0D95     		str	r5, [sp, #52]
 1122              		.loc 1 325 0
 1123 00ca 91F8AE50 		ldrb	r5, [r1, #174]	@ zero_extendqisi2
 326:../libraries/CC3000_Host_Driver/security.c ****   state[15]^=expandedKey[175];
 1124              		.loc 1 326 0
 1125 00ce E07B     		ldrb	r0, [r4, #15]	@ zero_extendqisi2
 325:../libraries/CC3000_Host_Driver/security.c ****   state[14]^=expandedKey[174]; 
 1126              		.loc 1 325 0
 1127 00d0 5540     		eors	r5, r5, r2
 1128 00d2 A573     		strb	r5, [r4, #14]
 1129              		.loc 1 326 0
 1130 00d4 91F8AF20 		ldrb	r2, [r1, #175]	@ zero_extendqisi2
 327:../libraries/CC3000_Host_Driver/security.c **** 	
 328:../libraries/CC3000_Host_Driver/security.c ****   // 10th round without mixcols
 329:../libraries/CC3000_Host_Driver/security.c ****   state[ 0]  = rsbox[state[ 0]] ^ expandedKey[(round*16)     ];
 1131              		.loc 1 329 0
 1132 00d8 4B4B     		ldr	r3, .L21
 326:../libraries/CC3000_Host_Driver/security.c ****   state[15]^=expandedKey[175];
 1133              		.loc 1 326 0
 1134 00da 4240     		eors	r2, r2, r0
 1135 00dc E273     		strb	r2, [r4, #15]
 1136              		.loc 1 329 0
 1137 00de 9A44     		add	sl, r3, sl
 1138 00e0 91F89000 		ldrb	r0, [r1, #144]	@ zero_extendqisi2
 1139 00e4 9AF80B61 		ldrb	r6, [sl, #267]	@ zero_extendqisi2
 330:../libraries/CC3000_Host_Driver/security.c ****   state[ 4]  = rsbox[state[ 4]] ^ expandedKey[(round*16) +  4];
 1140              		.loc 1 330 0
 1141 00e8 9944     		add	r9, r3, r9
 329:../libraries/CC3000_Host_Driver/security.c ****   state[ 0]  = rsbox[state[ 0]] ^ expandedKey[(round*16)     ];
 1142              		.loc 1 329 0
 1143 00ea 4640     		eors	r6, r6, r0
 1144 00ec 2670     		strb	r6, [r4, #0]
 1145              		.loc 1 330 0
 1146 00ee 91F89400 		ldrb	r0, [r1, #148]	@ zero_extendqisi2
 1147 00f2 99F80BA1 		ldrb	sl, [r9, #267]	@ zero_extendqisi2
 331:../libraries/CC3000_Host_Driver/security.c ****   state[ 8]  = rsbox[state[ 8]] ^ expandedKey[(round*16) +  8];
 1148              		.loc 1 331 0
 1149 00f6 9844     		add	r8, r3, r8
 330:../libraries/CC3000_Host_Driver/security.c ****   state[ 4]  = rsbox[state[ 4]] ^ expandedKey[(round*16) +  4];
 1150              		.loc 1 330 0
 1151 00f8 8AEA0006 		eor	r6, sl, r0
 1152 00fc 2671     		strb	r6, [r4, #4]
 1153              		.loc 1 331 0
 1154 00fe 91F89800 		ldrb	r0, [r1, #152]	@ zero_extendqisi2
 1155 0102 98F80B91 		ldrb	r9, [r8, #267]	@ zero_extendqisi2
 332:../libraries/CC3000_Host_Driver/security.c ****   state[12]  = rsbox[state[12]] ^ expandedKey[(round*16) + 12];
 1156              		.loc 1 332 0
 1157 0106 9C44     		add	ip, r3, ip
 331:../libraries/CC3000_Host_Driver/security.c ****   state[ 8]  = rsbox[state[ 8]] ^ expandedKey[(round*16) +  8];
 1158              		.loc 1 331 0
 1159 0108 89EA0006 		eor	r6, r9, r0
 1160 010c 2672     		strb	r6, [r4, #8]
 1161              		.loc 1 332 0
 1162 010e 9CF80BA1 		ldrb	sl, [ip, #267]	@ zero_extendqisi2
 1163 0112 91F89C00 		ldrb	r0, [r1, #156]	@ zero_extendqisi2
 333:../libraries/CC3000_Host_Driver/security.c ****   // row 1
 334:../libraries/CC3000_Host_Driver/security.c ****   buf1 =       rsbox[state[13]] ^ expandedKey[(round*16) +  1];
 1164              		.loc 1 334 0
 1165 0116 9E44     		add	lr, r3, lr
 332:../libraries/CC3000_Host_Driver/security.c ****   state[12]  = rsbox[state[12]] ^ expandedKey[(round*16) + 12];
 1166              		.loc 1 332 0
 1167 0118 8AEA0006 		eor	r6, sl, r0
 1168 011c 2673     		strb	r6, [r4, #12]
 335:../libraries/CC3000_Host_Driver/security.c ****   state[13]  = rsbox[state[ 9]] ^ expandedKey[(round*16) + 13];
 1169              		.loc 1 335 0
 1170 011e DF19     		adds	r7, r3, r7
 334:../libraries/CC3000_Host_Driver/security.c ****   buf1 =       rsbox[state[13]] ^ expandedKey[(round*16) +  1];
 1171              		.loc 1 334 0
 1172 0120 9EF80B81 		ldrb	r8, [lr, #267]	@ zero_extendqisi2
 1173              		.loc 1 335 0
 1174 0124 97F80BC1 		ldrb	ip, [r7, #267]	@ zero_extendqisi2
 334:../libraries/CC3000_Host_Driver/security.c ****   buf1 =       rsbox[state[13]] ^ expandedKey[(round*16) +  1];
 1175              		.loc 1 334 0
 1176 0128 91F89100 		ldrb	r0, [r1, #145]	@ zero_extendqisi2
 1177              		.loc 1 335 0
 1178 012c 91F89D60 		ldrb	r6, [r1, #157]	@ zero_extendqisi2
 334:../libraries/CC3000_Host_Driver/security.c ****   buf1 =       rsbox[state[13]] ^ expandedKey[(round*16) +  1];
 1179              		.loc 1 334 0
 1180 0130 88EA0009 		eor	r9, r8, r0
 1181              	.LVL69:
 1182              		.loc 1 335 0
 1183 0134 8CEA0600 		eor	r0, ip, r6
 1184 0138 6073     		strb	r0, [r4, #13]
 336:../libraries/CC3000_Host_Driver/security.c ****   state[ 9]  = rsbox[state[ 5]] ^ expandedKey[(round*16) +  9];
 1185              		.loc 1 336 0
 1186 013a 0C9F     		ldr	r7, [sp, #48]
 337:../libraries/CC3000_Host_Driver/security.c ****   state[ 5]  = rsbox[state[ 1]] ^ expandedKey[(round*16) +  5];
 1187              		.loc 1 337 0
 1188 013c DDF814A0 		ldr	sl, [sp, #20]
 336:../libraries/CC3000_Host_Driver/security.c ****   state[ 9]  = rsbox[state[ 5]] ^ expandedKey[(round*16) +  9];
 1189              		.loc 1 336 0
 1190 0140 DE19     		adds	r6, r3, r7
 1191 0142 96F80B01 		ldrb	r0, [r6, #267]	@ zero_extendqisi2
 1192 0146 91F89970 		ldrb	r7, [r1, #153]	@ zero_extendqisi2
 338:../libraries/CC3000_Host_Driver/security.c ****   state[ 1]  = buf1;
 339:../libraries/CC3000_Host_Driver/security.c ****   // row 2
 340:../libraries/CC3000_Host_Driver/security.c ****   buf1 =       rsbox[state[ 2]] ^ expandedKey[(round*16) + 10];
 341:../libraries/CC3000_Host_Driver/security.c ****   buf2 =       rsbox[state[ 6]] ^ expandedKey[(round*16) + 14];
 1193              		.loc 1 341 0
 1194 014a DDF82080 		ldr	r8, [sp, #32]
 336:../libraries/CC3000_Host_Driver/security.c ****   state[ 9]  = rsbox[state[ 5]] ^ expandedKey[(round*16) +  9];
 1195              		.loc 1 336 0
 1196 014e 80EA0706 		eor	r6, r0, r7
 1197 0152 6672     		strb	r6, [r4, #9]
 337:../libraries/CC3000_Host_Driver/security.c ****   state[ 5]  = rsbox[state[ 1]] ^ expandedKey[(round*16) +  5];
 1198              		.loc 1 337 0
 1199 0154 03EB0A00 		add	r0, r3, sl
 1200 0158 91F89560 		ldrb	r6, [r1, #149]	@ zero_extendqisi2
 1201 015c 90F80B71 		ldrb	r7, [r0, #267]	@ zero_extendqisi2
 338:../libraries/CC3000_Host_Driver/security.c ****   state[ 1]  = buf1;
 1202              		.loc 1 338 0
 1203 0160 84F80190 		strb	r9, [r4, #1]
 337:../libraries/CC3000_Host_Driver/security.c ****   state[ 5]  = rsbox[state[ 1]] ^ expandedKey[(round*16) +  5];
 1204              		.loc 1 337 0
 1205 0164 87EA0600 		eor	r0, r7, r6
 1206 0168 6071     		strb	r0, [r4, #5]
 1207              		.loc 1 341 0
 1208 016a 03EB0800 		add	r0, r3, r8
 340:../libraries/CC3000_Host_Driver/security.c ****   buf1 =       rsbox[state[ 2]] ^ expandedKey[(round*16) + 10];
 1209              		.loc 1 340 0
 1210 016e DDF818E0 		ldr	lr, [sp, #24]
 1211              		.loc 1 341 0
 1212 0172 90F80B91 		ldrb	r9, [r0, #267]	@ zero_extendqisi2
 1213              	.LVL70:
 342:../libraries/CC3000_Host_Driver/security.c ****   state[ 2]  = rsbox[state[10]] ^ expandedKey[(round*16) +  2];
 1214              		.loc 1 342 0
 1215 0176 0998     		ldr	r0, [sp, #36]
 340:../libraries/CC3000_Host_Driver/security.c ****   buf1 =       rsbox[state[ 2]] ^ expandedKey[(round*16) + 10];
 1216              		.loc 1 340 0
 1217 0178 03EB0E07 		add	r7, r3, lr
 1218              		.loc 1 342 0
 1219 017c 03EB000E 		add	lr, r3, r0
 1220 0180 9EF80BC1 		ldrb	ip, [lr, #267]	@ zero_extendqisi2
 1221 0184 91F89200 		ldrb	r0, [r1, #146]	@ zero_extendqisi2
 340:../libraries/CC3000_Host_Driver/security.c ****   buf1 =       rsbox[state[ 2]] ^ expandedKey[(round*16) + 10];
 1222              		.loc 1 340 0
 1223 0188 91F89A60 		ldrb	r6, [r1, #154]	@ zero_extendqisi2
 1224 018c 97F80B71 		ldrb	r7, [r7, #267]	@ zero_extendqisi2
 1225              		.loc 1 342 0
 1226 0190 8CEA000A 		eor	sl, ip, r0
 340:../libraries/CC3000_Host_Driver/security.c ****   buf1 =       rsbox[state[ 2]] ^ expandedKey[(round*16) + 10];
 1227              		.loc 1 340 0
 1228 0194 7740     		eors	r7, r7, r6
 1229              	.LVL71:
 343:../libraries/CC3000_Host_Driver/security.c ****   state[ 6]  = rsbox[state[14]] ^ expandedKey[(round*16) +  6];
 1230              		.loc 1 343 0
 1231 0196 5D19     		adds	r5, r3, r5
 341:../libraries/CC3000_Host_Driver/security.c ****   buf2 =       rsbox[state[ 6]] ^ expandedKey[(round*16) + 14];
 1232              		.loc 1 341 0
 1233 0198 91F89E60 		ldrb	r6, [r1, #158]	@ zero_extendqisi2
 342:../libraries/CC3000_Host_Driver/security.c ****   state[ 2]  = rsbox[state[10]] ^ expandedKey[(round*16) +  2];
 1234              		.loc 1 342 0
 1235 019c 84F802A0 		strb	sl, [r4, #2]
 1236              		.loc 1 343 0
 1237 01a0 91F89600 		ldrb	r0, [r1, #150]	@ zero_extendqisi2
 1238 01a4 95F80B81 		ldrb	r8, [r5, #267]	@ zero_extendqisi2
 344:../libraries/CC3000_Host_Driver/security.c ****   state[10]  = buf1;
 1239              		.loc 1 344 0
 1240 01a8 A772     		strb	r7, [r4, #10]
 345:../libraries/CC3000_Host_Driver/security.c ****   state[14]  = buf2;
 346:../libraries/CC3000_Host_Driver/security.c ****   // row 3
 347:../libraries/CC3000_Host_Driver/security.c ****   buf1 =       rsbox[state[ 3]] ^ expandedKey[(round*16) + 15];
 1241              		.loc 1 347 0
 1242 01aa 079F     		ldr	r7, [sp, #28]
 1243              	.LVL72:
 343:../libraries/CC3000_Host_Driver/security.c ****   state[ 6]  = rsbox[state[14]] ^ expandedKey[(round*16) +  6];
 1244              		.loc 1 343 0
 1245 01ac 88EA0005 		eor	r5, r8, r0
 341:../libraries/CC3000_Host_Driver/security.c ****   buf2 =       rsbox[state[ 6]] ^ expandedKey[(round*16) + 14];
 1246              		.loc 1 341 0
 1247 01b0 89EA0606 		eor	r6, r9, r6
 1248              	.LVL73:
 345:../libraries/CC3000_Host_Driver/security.c ****   state[14]  = buf2;
 1249              		.loc 1 345 0
 1250 01b4 A673     		strb	r6, [r4, #14]
 343:../libraries/CC3000_Host_Driver/security.c ****   state[ 6]  = rsbox[state[14]] ^ expandedKey[(round*16) +  6];
 1251              		.loc 1 343 0
 1252 01b6 A571     		strb	r5, [r4, #6]
 1253              		.loc 1 347 0
 1254 01b8 DE19     		adds	r6, r3, r7
 1255              	.LVL74:
 1256 01ba 96F80B01 		ldrb	r0, [r6, #267]	@ zero_extendqisi2
 1257 01be 91F89F50 		ldrb	r5, [r1, #159]	@ zero_extendqisi2
 348:../libraries/CC3000_Host_Driver/security.c ****   state[ 3]  = rsbox[state[ 7]] ^ expandedKey[(round*16) +  3];
 1258              		.loc 1 348 0
 1259 01c2 03EB0B07 		add	r7, r3, fp
 1260 01c6 91F89360 		ldrb	r6, [r1, #147]	@ zero_extendqisi2
 347:../libraries/CC3000_Host_Driver/security.c ****   buf1 =       rsbox[state[ 3]] ^ expandedKey[(round*16) + 15];
 1261              		.loc 1 347 0
 1262 01ca 4540     		eors	r5, r5, r0
 1263              	.LVL75:
 1264              		.loc 1 348 0
 1265 01cc 97F80B01 		ldrb	r0, [r7, #267]	@ zero_extendqisi2
 349:../libraries/CC3000_Host_Driver/security.c ****   state[ 7]  = rsbox[state[11]] ^ expandedKey[(round*16) +  7];
 350:../libraries/CC3000_Host_Driver/security.c ****   state[11]  = rsbox[state[15]] ^ expandedKey[(round*16) + 11];
 1266              		.loc 1 350 0
 1267 01d0 9A18     		adds	r2, r3, r2
 348:../libraries/CC3000_Host_Driver/security.c ****   state[ 3]  = rsbox[state[ 7]] ^ expandedKey[(round*16) +  3];
 1268              		.loc 1 348 0
 1269 01d2 80EA0607 		eor	r7, r0, r6
 349:../libraries/CC3000_Host_Driver/security.c ****   state[ 7]  = rsbox[state[11]] ^ expandedKey[(round*16) +  7];
 1270              		.loc 1 349 0
 1271 01d6 0D98     		ldr	r0, [sp, #52]
 348:../libraries/CC3000_Host_Driver/security.c ****   state[ 3]  = rsbox[state[ 7]] ^ expandedKey[(round*16) +  3];
 1272              		.loc 1 348 0
 1273 01d8 E770     		strb	r7, [r4, #3]
 349:../libraries/CC3000_Host_Driver/security.c ****   state[ 7]  = rsbox[state[11]] ^ expandedKey[(round*16) +  7];
 1274              		.loc 1 349 0
 1275 01da 1E18     		adds	r6, r3, r0
 1276 01dc 96F80B71 		ldrb	r7, [r6, #267]	@ zero_extendqisi2
 1277 01e0 91F89700 		ldrb	r0, [r1, #151]	@ zero_extendqisi2
 351:../libraries/CC3000_Host_Driver/security.c ****   state[15]  = buf1;
 1278              		.loc 1 351 0
 1279 01e4 4FF0090B 		mov	fp, #9
 349:../libraries/CC3000_Host_Driver/security.c ****   state[ 7]  = rsbox[state[11]] ^ expandedKey[(round*16) +  7];
 1280              		.loc 1 349 0
 1281 01e8 87EA0006 		eor	r6, r7, r0
 1282 01ec E671     		strb	r6, [r4, #7]
 350:../libraries/CC3000_Host_Driver/security.c ****   state[11]  = rsbox[state[15]] ^ expandedKey[(round*16) + 11];
 1283              		.loc 1 350 0
 1284 01ee 91F89B30 		ldrb	r3, [r1, #155]	@ zero_extendqisi2
 1285 01f2 92F80B71 		ldrb	r7, [r2, #267]	@ zero_extendqisi2
 1286              		.loc 1 351 0
 1287 01f6 E573     		strb	r5, [r4, #15]
 1288              	.LVL76:
 350:../libraries/CC3000_Host_Driver/security.c ****   state[11]  = rsbox[state[15]] ^ expandedKey[(round*16) + 11];
 1289              		.loc 1 350 0
 1290 01f8 87EA0300 		eor	r0, r7, r3
 1291 01fc E072     		strb	r0, [r4, #11]
 1292 01fe 0D46     		mov	r5, r1
 1293              	.LVL77:
 1294              		.loc 1 351 0
 1295 0200 CDF840B0 		str	fp, [sp, #64]
 1296 0204 02E0     		b	.L22
 1297              	.L23:
 1298 0206 00BF     		.align	2
 1299              	.L21:
 1300 0208 00000000 		.word	.LANCHOR0
 1301              	.L22:
 1302              	.LVL78:
 1303              	.L19:
 352:../libraries/CC3000_Host_Driver/security.c **** 	
 353:../libraries/CC3000_Host_Driver/security.c ****   for (round = 8; round >= 0; round--){
 354:../libraries/CC3000_Host_Driver/security.c ****     // barreto
 355:../libraries/CC3000_Host_Driver/security.c ****     //col1
 356:../libraries/CC3000_Host_Driver/security.c ****     buf1 = galois_mul2(galois_mul2(state[0]^state[2]));
 1304              		.loc 1 356 0 discriminator 2
 1305 020c 94F80090 		ldrb	r9, [r4, #0]	@ zero_extendqisi2
 1306 0210 A778     		ldrb	r7, [r4, #2]	@ zero_extendqisi2
 1307 0212 87EA0900 		eor	r0, r7, r9
 1308 0216 FFF7FEFF 		bl	galois_mul2
 1309              	.LVL79:
 1310 021a FFF7FEFF 		bl	galois_mul2
 1311              	.LVL80:
 357:../libraries/CC3000_Host_Driver/security.c ****     buf2 = galois_mul2(galois_mul2(state[1]^state[3]));
 1312              		.loc 1 357 0 discriminator 2
 1313 021e 94F80180 		ldrb	r8, [r4, #1]	@ zero_extendqisi2
 1314 0222 E678     		ldrb	r6, [r4, #3]	@ zero_extendqisi2
 356:../libraries/CC3000_Host_Driver/security.c ****     buf1 = galois_mul2(galois_mul2(state[0]^state[2]));
 1315              		.loc 1 356 0 discriminator 2
 1316 0224 8246     		mov	sl, r0
 1317              	.LVL81:
 1318              		.loc 1 357 0 discriminator 2
 1319 0226 86EA0800 		eor	r0, r6, r8
 1320              	.LVL82:
 1321 022a FFF7FEFF 		bl	galois_mul2
 1322              	.LVL83:
 1323 022e FFF7FEFF 		bl	galois_mul2
 1324              	.LVL84:
 358:../libraries/CC3000_Host_Driver/security.c ****     state[0] ^= buf1;     state[1] ^= buf2;    state[2] ^= buf1;    state[3] ^= buf2;
 1325              		.loc 1 358 0 discriminator 2
 1326 0232 8AEA0703 		eor	r3, sl, r7
 1327 0236 80EA0802 		eor	r2, r0, r8
 359:../libraries/CC3000_Host_Driver/security.c ****     //col2
 360:../libraries/CC3000_Host_Driver/security.c ****     buf1 = galois_mul2(galois_mul2(state[4]^state[6]));
 1328              		.loc 1 360 0 discriminator 2
 1329 023a 2779     		ldrb	r7, [r4, #4]	@ zero_extendqisi2
 358:../libraries/CC3000_Host_Driver/security.c ****     state[0] ^= buf1;     state[1] ^= buf2;    state[2] ^= buf1;    state[3] ^= buf2;
 1330              		.loc 1 358 0 discriminator 2
 1331 023c 7040     		eors	r0, r0, r6
 1332              	.LVL85:
 1333              		.loc 1 360 0 discriminator 2
 1334 023e A679     		ldrb	r6, [r4, #6]	@ zero_extendqisi2
 358:../libraries/CC3000_Host_Driver/security.c ****     state[0] ^= buf1;     state[1] ^= buf2;    state[2] ^= buf1;    state[3] ^= buf2;
 1335              		.loc 1 358 0 discriminator 2
 1336 0240 8AEA0901 		eor	r1, sl, r9
 1337 0244 5FFA80F8 		uxtb	r8, r0
 1338              		.loc 1 360 0 discriminator 2
 1339 0248 86EA0700 		eor	r0, r6, r7
 358:../libraries/CC3000_Host_Driver/security.c ****     state[0] ^= buf1;     state[1] ^= buf2;    state[2] ^= buf1;    state[3] ^= buf2;
 1340              		.loc 1 358 0 discriminator 2
 1341 024c 5FFA82FB 		uxtb	fp, r2
 1342 0250 5FFA83FA 		uxtb	sl, r3
 1343              	.LVL86:
 1344 0254 5FFA81F9 		uxtb	r9, r1
 1345              		.loc 1 360 0 discriminator 2
 1346 0258 0397     		str	r7, [sp, #12]
 1347 025a 0296     		str	r6, [sp, #8]
 1348 025c FFF7FEFF 		bl	galois_mul2
 1349              	.LVL87:
 1350 0260 FFF7FEFF 		bl	galois_mul2
 1351              	.LVL88:
 361:../libraries/CC3000_Host_Driver/security.c ****     buf2 = galois_mul2(galois_mul2(state[5]^state[7]));
 1352              		.loc 1 361 0 discriminator 2
 1353 0264 E679     		ldrb	r6, [r4, #7]	@ zero_extendqisi2
 1354 0266 6779     		ldrb	r7, [r4, #5]	@ zero_extendqisi2
 360:../libraries/CC3000_Host_Driver/security.c ****     buf1 = galois_mul2(galois_mul2(state[4]^state[6]));
 1355              		.loc 1 360 0 discriminator 2
 1356 0268 0146     		mov	r1, r0
 1357              	.LVL89:
 1358              		.loc 1 361 0 discriminator 2
 1359 026a 86EA0700 		eor	r0, r6, r7
 1360              	.LVL90:
 1361 026e 0491     		str	r1, [sp, #16]
 1362 0270 FFF7FEFF 		bl	galois_mul2
 1363              	.LVL91:
 1364 0274 FFF7FEFF 		bl	galois_mul2
 1365              	.LVL92:
 362:../libraries/CC3000_Host_Driver/security.c ****     state[4] ^= buf1;    state[5] ^= buf2;    state[6] ^= buf1;    state[7] ^= buf2;
 1366              		.loc 1 362 0 discriminator 2
 1367 0278 039B     		ldr	r3, [sp, #12]
 1368 027a 049A     		ldr	r2, [sp, #16]
 1369              	.LVL93:
 363:../libraries/CC3000_Host_Driver/security.c ****     //col3
 364:../libraries/CC3000_Host_Driver/security.c ****     buf1 = galois_mul2(galois_mul2(state[8]^state[10]));
 1370              		.loc 1 364 0 discriminator 2
 1371 027c 94F808C0 		ldrb	ip, [r4, #8]	@ zero_extendqisi2
 362:../libraries/CC3000_Host_Driver/security.c ****     state[4] ^= buf1;    state[5] ^= buf2;    state[6] ^= buf1;    state[7] ^= buf2;
 1372              		.loc 1 362 0 discriminator 2
 1373 0280 82EA0301 		eor	r1, r2, r3
 1374 0284 CBB2     		uxtb	r3, r1
 1375 0286 0299     		ldr	r1, [sp, #8]
 1376 0288 4740     		eors	r7, r7, r0
 1377 028a 4A40     		eors	r2, r2, r1
 1378              	.LVL94:
 1379              		.loc 1 364 0 discriminator 2
 1380 028c A17A     		ldrb	r1, [r4, #10]	@ zero_extendqisi2
 362:../libraries/CC3000_Host_Driver/security.c ****     state[4] ^= buf1;    state[5] ^= buf2;    state[6] ^= buf1;    state[7] ^= buf2;
 1381              		.loc 1 362 0 discriminator 2
 1382 028e 7040     		eors	r0, r0, r6
 1383              	.LVL95:
 1384 0290 C6B2     		uxtb	r6, r0
 1385 0292 0593     		str	r3, [sp, #20]
 1386              		.loc 1 364 0 discriminator 2
 1387 0294 81EA0C00 		eor	r0, r1, ip
 362:../libraries/CC3000_Host_Driver/security.c ****     state[4] ^= buf1;    state[5] ^= buf2;    state[6] ^= buf1;    state[7] ^= buf2;
 1388              		.loc 1 362 0 discriminator 2
 1389 0298 D3B2     		uxtb	r3, r2
 1390              		.loc 1 364 0 discriminator 2
 1391 029a 0291     		str	r1, [sp, #8]
 1392 029c CDF804C0 		str	ip, [sp, #4]
 362:../libraries/CC3000_Host_Driver/security.c ****     state[4] ^= buf1;    state[5] ^= buf2;    state[6] ^= buf1;    state[7] ^= buf2;
 1393              		.loc 1 362 0 discriminator 2
 1394 02a0 0693     		str	r3, [sp, #24]
 1395 02a2 0796     		str	r6, [sp, #28]
 1396              		.loc 1 364 0 discriminator 2
 1397 02a4 FFF7FEFF 		bl	galois_mul2
 1398              	.LVL96:
 1399 02a8 FFF7FEFF 		bl	galois_mul2
 1400              	.LVL97:
 365:../libraries/CC3000_Host_Driver/security.c ****     buf2 = galois_mul2(galois_mul2(state[9]^state[11]));
 1401              		.loc 1 365 0 discriminator 2
 1402 02ac 637A     		ldrb	r3, [r4, #9]	@ zero_extendqisi2
 1403 02ae E67A     		ldrb	r6, [r4, #11]	@ zero_extendqisi2
 364:../libraries/CC3000_Host_Driver/security.c ****     buf1 = galois_mul2(galois_mul2(state[8]^state[10]));
 1404              		.loc 1 364 0 discriminator 2
 1405 02b0 0246     		mov	r2, r0
 1406              	.LVL98:
 1407              		.loc 1 365 0 discriminator 2
 1408 02b2 86EA0300 		eor	r0, r6, r3
 1409              	.LVL99:
 1410 02b6 0393     		str	r3, [sp, #12]
 1411 02b8 0492     		str	r2, [sp, #16]
 1412 02ba FFF7FEFF 		bl	galois_mul2
 1413              	.LVL100:
 1414 02be FFF7FEFF 		bl	galois_mul2
 1415              	.LVL101:
 366:../libraries/CC3000_Host_Driver/security.c ****     state[8] ^= buf1;    state[9] ^= buf2;    state[10] ^= buf1;    state[11] ^= buf2;
 1416              		.loc 1 366 0 discriminator 2
 1417 02c2 049A     		ldr	r2, [sp, #16]
 1418              	.LVL102:
 1419 02c4 DDF804C0 		ldr	ip, [sp, #4]
 1420 02c8 039B     		ldr	r3, [sp, #12]
 1421 02ca 82EA0C01 		eor	r1, r2, ip
 1422 02ce 5FFA81FC 		uxtb	ip, r1
 1423 02d2 80EA0301 		eor	r1, r0, r3
 1424 02d6 CBB2     		uxtb	r3, r1
 1425 02d8 0299     		ldr	r1, [sp, #8]
 1426 02da 0993     		str	r3, [sp, #36]
 1427 02dc 4A40     		eors	r2, r2, r1
 1428              	.LVL103:
 1429 02de D3B2     		uxtb	r3, r2
 1430 02e0 CDF820C0 		str	ip, [sp, #32]
 1431 02e4 0A93     		str	r3, [sp, #40]
 367:../libraries/CC3000_Host_Driver/security.c ****     //col4
 368:../libraries/CC3000_Host_Driver/security.c ****     buf1 = galois_mul2(galois_mul2(state[12]^state[14]));
 1432              		.loc 1 368 0 discriminator 2
 1433 02e6 94F80CC0 		ldrb	ip, [r4, #12]	@ zero_extendqisi2
 1434 02ea A17B     		ldrb	r1, [r4, #14]	@ zero_extendqisi2
 366:../libraries/CC3000_Host_Driver/security.c ****     state[8] ^= buf1;    state[9] ^= buf2;    state[10] ^= buf1;    state[11] ^= buf2;
 1435              		.loc 1 366 0 discriminator 2
 1436 02ec 7040     		eors	r0, r0, r6
 1437              	.LVL104:
 1438 02ee C6B2     		uxtb	r6, r0
 1439              		.loc 1 368 0 discriminator 2
 1440 02f0 81EA0C00 		eor	r0, r1, ip
 1441 02f4 0291     		str	r1, [sp, #8]
 1442 02f6 CDF804C0 		str	ip, [sp, #4]
 366:../libraries/CC3000_Host_Driver/security.c ****     state[8] ^= buf1;    state[9] ^= buf2;    state[10] ^= buf1;    state[11] ^= buf2;
 1443              		.loc 1 366 0 discriminator 2
 1444 02fa 0B96     		str	r6, [sp, #44]
 1445              		.loc 1 368 0 discriminator 2
 1446 02fc FFF7FEFF 		bl	galois_mul2
 1447              	.LVL105:
 1448 0300 FFF7FEFF 		bl	galois_mul2
 1449              	.LVL106:
 369:../libraries/CC3000_Host_Driver/security.c ****     buf2 = galois_mul2(galois_mul2(state[13]^state[15]));
 1450              		.loc 1 369 0 discriminator 2
 1451 0304 637B     		ldrb	r3, [r4, #13]	@ zero_extendqisi2
 1452 0306 E67B     		ldrb	r6, [r4, #15]	@ zero_extendqisi2
 368:../libraries/CC3000_Host_Driver/security.c ****     buf1 = galois_mul2(galois_mul2(state[12]^state[14]));
 1453              		.loc 1 368 0 discriminator 2
 1454 0308 0246     		mov	r2, r0
 1455              	.LVL107:
 1456              		.loc 1 369 0 discriminator 2
 1457 030a 86EA0300 		eor	r0, r6, r3
 1458              	.LVL108:
 1459 030e 0393     		str	r3, [sp, #12]
 1460 0310 0492     		str	r2, [sp, #16]
 1461 0312 FFF7FEFF 		bl	galois_mul2
 1462              	.LVL109:
 1463 0316 FFF7FEFF 		bl	galois_mul2
 1464              	.LVL110:
 370:../libraries/CC3000_Host_Driver/security.c ****     state[12] ^= buf1;    state[13] ^= buf2;    state[14] ^= buf1;    state[15] ^= buf2;
 1465              		.loc 1 370 0 discriminator 2
 1466 031a DDF804C0 		ldr	ip, [sp, #4]
 1467 031e 049A     		ldr	r2, [sp, #16]
 1468              	.LVL111:
 1469 0320 039B     		ldr	r3, [sp, #12]
 1470 0322 82EA0C01 		eor	r1, r2, ip
 1471 0326 5FFA81FC 		uxtb	ip, r1
 1472 032a 80EA0301 		eor	r1, r0, r3
 1473 032e CBB2     		uxtb	r3, r1
 1474 0330 0299     		ldr	r1, [sp, #8]
 1475 0332 7040     		eors	r0, r0, r6
 1476              	.LVL112:
 1477 0334 4A40     		eors	r2, r2, r1
 1478              	.LVL113:
 1479 0336 C6B2     		uxtb	r6, r0
 371:../libraries/CC3000_Host_Driver/security.c ****     // mixcolums //////////
 372:../libraries/CC3000_Host_Driver/security.c ****     // col1
 373:../libraries/CC3000_Host_Driver/security.c ****     buf1 = state[0] ^ state[1] ^ state[2] ^ state[3];
 1480              		.loc 1 373 0 discriminator 2
 1481 0338 88EA0A01 		eor	r1, r8, sl
 1482 033c 8BEA0900 		eor	r0, fp, r9
 370:../libraries/CC3000_Host_Driver/security.c ****     state[12] ^= buf1;    state[13] ^= buf2;    state[14] ^= buf1;    state[15] ^= buf2;
 1483              		.loc 1 370 0 discriminator 2
 1484 0340 0D93     		str	r3, [sp, #52]
 1485 0342 D3B2     		uxtb	r3, r2
 1486 0344 0E93     		str	r3, [sp, #56]
 374:../libraries/CC3000_Host_Driver/security.c ****     buf2 = state[0];
 375:../libraries/CC3000_Host_Driver/security.c ****     buf3 = state[0]^state[1]; buf3=galois_mul2(buf3); state[0] = state[0] ^ buf3 ^ buf1;
 1487              		.loc 1 375 0 discriminator 2
 1488 0346 0291     		str	r1, [sp, #8]
 370:../libraries/CC3000_Host_Driver/security.c ****     state[12] ^= buf1;    state[13] ^= buf2;    state[14] ^= buf1;    state[15] ^= buf2;
 1489              		.loc 1 370 0 discriminator 2
 1490 0348 CDF830C0 		str	ip, [sp, #48]
 1491 034c 0F96     		str	r6, [sp, #60]
 373:../libraries/CC3000_Host_Driver/security.c ****     buf1 = state[0] ^ state[1] ^ state[2] ^ state[3];
 1492              		.loc 1 373 0 discriminator 2
 1493 034e 81EA0006 		eor	r6, r1, r0
 1494              	.LVL114:
 1495              		.loc 1 375 0 discriminator 2
 1496 0352 FFF7FEFF 		bl	galois_mul2
 1497              	.LVL115:
 1498 0356 89EA0002 		eor	r2, r9, r0
 1499 035a 86EA020C 		eor	ip, r6, r2
 1500 035e 5FFA8CFC 		uxtb	ip, ip
 376:../libraries/CC3000_Host_Driver/security.c ****     buf3 = state[1]^state[2]; buf3=galois_mul2(buf3); state[1] = state[1] ^ buf3 ^ buf1;
 1501              		.loc 1 376 0 discriminator 2
 1502 0362 8AEA0B00 		eor	r0, sl, fp
 375:../libraries/CC3000_Host_Driver/security.c ****     buf3 = state[0]^state[1]; buf3=galois_mul2(buf3); state[0] = state[0] ^ buf3 ^ buf1;
 1503              		.loc 1 375 0 discriminator 2
 1504 0366 84F800C0 		strb	ip, [r4, #0]
 1505              		.loc 1 376 0 discriminator 2
 1506 036a CDF804C0 		str	ip, [sp, #4]
 1507 036e FFF7FEFF 		bl	galois_mul2
 1508              	.LVL116:
 1509 0372 8BEA0003 		eor	r3, fp, r0
 1510 0376 86EA030B 		eor	fp, r6, r3
 377:../libraries/CC3000_Host_Driver/security.c ****     buf3 = state[2]^state[3]; buf3=galois_mul2(buf3); state[2] = state[2] ^ buf3 ^ buf1;
 1511              		.loc 1 377 0 discriminator 2
 1512 037a 0299     		ldr	r1, [sp, #8]
 376:../libraries/CC3000_Host_Driver/security.c ****     buf3 = state[1]^state[2]; buf3=galois_mul2(buf3); state[1] = state[1] ^ buf3 ^ buf1;
 1513              		.loc 1 376 0 discriminator 2
 1514 037c 5FFA8BFC 		uxtb	ip, fp
 1515 0380 84F801C0 		strb	ip, [r4, #1]
 1516              	.LVL117:
 1517              		.loc 1 377 0 discriminator 2
 1518 0384 0846     		mov	r0, r1
 376:../libraries/CC3000_Host_Driver/security.c ****     buf3 = state[1]^state[2]; buf3=galois_mul2(buf3); state[1] = state[1] ^ buf3 ^ buf1;
 1519              		.loc 1 376 0 discriminator 2
 1520 0386 CDF844C0 		str	ip, [sp, #68]
 1521              		.loc 1 377 0 discriminator 2
 1522 038a FFF7FEFF 		bl	galois_mul2
 1523              	.LVL118:
 1524 038e 8AEA0002 		eor	r2, sl, r0
 1525 0392 86EA020A 		eor	sl, r6, r2
 1526 0396 5FFA8AFB 		uxtb	fp, sl
 378:../libraries/CC3000_Host_Driver/security.c ****     buf3 = state[3]^buf2;     buf3=galois_mul2(buf3); state[3] = state[3] ^ buf3 ^ buf1;
 1527              		.loc 1 378 0 discriminator 2
 1528 039a 88EA0900 		eor	r0, r8, r9
 377:../libraries/CC3000_Host_Driver/security.c ****     buf3 = state[2]^state[3]; buf3=galois_mul2(buf3); state[2] = state[2] ^ buf3 ^ buf1;
 1529              		.loc 1 377 0 discriminator 2
 1530 039e 84F802B0 		strb	fp, [r4, #2]
 1531 03a2 CDF848B0 		str	fp, [sp, #72]
 1532              		.loc 1 378 0 discriminator 2
 1533 03a6 FFF7FEFF 		bl	galois_mul2
 1534              	.LVL119:
 1535 03aa 88EA0000 		eor	r0, r8, r0
 1536              	.LVL120:
 379:../libraries/CC3000_Host_Driver/security.c ****     // col2
 380:../libraries/CC3000_Host_Driver/security.c ****     buf1 = state[4] ^ state[5] ^ state[6] ^ state[7];
 1537              		.loc 1 380 0 discriminator 2
 1538 03ae DDF81890 		ldr	r9, [sp, #24]
 1539              	.LVL121:
 1540 03b2 0599     		ldr	r1, [sp, #20]
 1541 03b4 079A     		ldr	r2, [sp, #28]
 378:../libraries/CC3000_Host_Driver/security.c ****     buf3 = state[3]^buf2;     buf3=galois_mul2(buf3); state[3] = state[3] ^ buf3 ^ buf1;
 1542              		.loc 1 378 0 discriminator 2
 1543 03b6 4640     		eors	r6, r6, r0
 1544              	.LVL122:
 362:../libraries/CC3000_Host_Driver/security.c ****     state[4] ^= buf1;    state[5] ^= buf2;    state[6] ^= buf1;    state[7] ^= buf2;
 1545              		.loc 1 362 0 discriminator 2
 1546 03b8 FFB2     		uxtb	r7, r7
 378:../libraries/CC3000_Host_Driver/security.c ****     buf3 = state[3]^buf2;     buf3=galois_mul2(buf3); state[3] = state[3] ^ buf3 ^ buf1;
 1547              		.loc 1 378 0 discriminator 2
 1548 03ba F6B2     		uxtb	r6, r6
 1549              		.loc 1 380 0 discriminator 2
 1550 03bc 82EA0908 		eor	r8, r2, r9
 1551 03c0 87EA0100 		eor	r0, r7, r1
 378:../libraries/CC3000_Host_Driver/security.c ****     buf3 = state[3]^buf2;     buf3=galois_mul2(buf3); state[3] = state[3] ^ buf3 ^ buf1;
 1552              		.loc 1 378 0 discriminator 2
 1553 03c4 E670     		strb	r6, [r4, #3]
 1554 03c6 1396     		str	r6, [sp, #76]
 1555              		.loc 1 380 0 discriminator 2
 1556 03c8 88EA0006 		eor	r6, r8, r0
 1557              	.LVL123:
 381:../libraries/CC3000_Host_Driver/security.c ****     buf2 = state[4];
 382:../libraries/CC3000_Host_Driver/security.c ****     buf3 = state[4]^state[5]; buf3=galois_mul2(buf3); state[4] = state[4] ^ buf3 ^ buf1;
 1558              		.loc 1 382 0 discriminator 2
 1559 03cc FFF7FEFF 		bl	galois_mul2
 1560              	.LVL124:
 1561 03d0 059B     		ldr	r3, [sp, #20]
 1562 03d2 5840     		eors	r0, r0, r3
 1563 03d4 86EA0001 		eor	r1, r6, r0
 1564 03d8 CAB2     		uxtb	r2, r1
 383:../libraries/CC3000_Host_Driver/security.c ****     buf3 = state[5]^state[6]; buf3=galois_mul2(buf3); state[5] = state[5] ^ buf3 ^ buf1;
 1565              		.loc 1 383 0 discriminator 2
 1566 03da 4846     		mov	r0, r9
 382:../libraries/CC3000_Host_Driver/security.c ****     buf3 = state[4]^state[5]; buf3=galois_mul2(buf3); state[4] = state[4] ^ buf3 ^ buf1;
 1567              		.loc 1 382 0 discriminator 2
 1568 03dc 2271     		strb	r2, [r4, #4]
 1569              		.loc 1 383 0 discriminator 2
 1570 03de 7840     		eors	r0, r0, r7
 382:../libraries/CC3000_Host_Driver/security.c ****     buf3 = state[4]^state[5]; buf3=galois_mul2(buf3); state[4] = state[4] ^ buf3 ^ buf1;
 1571              		.loc 1 382 0 discriminator 2
 1572 03e0 1492     		str	r2, [sp, #80]
 1573              		.loc 1 383 0 discriminator 2
 1574 03e2 FFF7FEFF 		bl	galois_mul2
 1575              	.LVL125:
 1576 03e6 4740     		eors	r7, r7, r0
 1577 03e8 86EA0703 		eor	r3, r6, r7
 1578 03ec D8B2     		uxtb	r0, r3
 1579              	.LVL126:
 1580 03ee 1590     		str	r0, [sp, #84]
 1581 03f0 6071     		strb	r0, [r4, #5]
 1582              	.LVL127:
 384:../libraries/CC3000_Host_Driver/security.c ****     buf3 = state[6]^state[7]; buf3=galois_mul2(buf3); state[6] = state[6] ^ buf3 ^ buf1;
 1583              		.loc 1 384 0 discriminator 2
 1584 03f2 4046     		mov	r0, r8
 1585 03f4 FFF7FEFF 		bl	galois_mul2
 1586              	.LVL128:
 1587 03f8 89EA0001 		eor	r1, r9, r0
 385:../libraries/CC3000_Host_Driver/security.c ****     buf3 = state[7]^buf2;     buf3=galois_mul2(buf3); state[7] = state[7] ^ buf3 ^ buf1;
 1588              		.loc 1 385 0 discriminator 2
 1589 03fc 059B     		ldr	r3, [sp, #20]
 384:../libraries/CC3000_Host_Driver/security.c ****     buf3 = state[6]^state[7]; buf3=galois_mul2(buf3); state[6] = state[6] ^ buf3 ^ buf1;
 1590              		.loc 1 384 0 discriminator 2
 1591 03fe 86EA0102 		eor	r2, r6, r1
 1592              		.loc 1 385 0 discriminator 2
 1593 0402 0798     		ldr	r0, [sp, #28]
 384:../libraries/CC3000_Host_Driver/security.c ****     buf3 = state[6]^state[7]; buf3=galois_mul2(buf3); state[6] = state[6] ^ buf3 ^ buf1;
 1594              		.loc 1 384 0 discriminator 2
 1595 0404 D7B2     		uxtb	r7, r2
 1596              		.loc 1 385 0 discriminator 2
 1597 0406 5840     		eors	r0, r0, r3
 384:../libraries/CC3000_Host_Driver/security.c ****     buf3 = state[6]^state[7]; buf3=galois_mul2(buf3); state[6] = state[6] ^ buf3 ^ buf1;
 1598              		.loc 1 384 0 discriminator 2
 1599 0408 A771     		strb	r7, [r4, #6]
 1600 040a 0697     		str	r7, [sp, #24]
 1601              		.loc 1 385 0 discriminator 2
 1602 040c FFF7FEFF 		bl	galois_mul2
 1603              	.LVL129:
 1604 0410 0799     		ldr	r1, [sp, #28]
 386:../libraries/CC3000_Host_Driver/security.c ****     // col3
 387:../libraries/CC3000_Host_Driver/security.c ****     buf1 = state[8] ^ state[9] ^ state[10] ^ state[11];
 1605              		.loc 1 387 0 discriminator 2
 1606 0412 089A     		ldr	r2, [sp, #32]
 385:../libraries/CC3000_Host_Driver/security.c ****     buf3 = state[7]^buf2;     buf3=galois_mul2(buf3); state[7] = state[7] ^ buf3 ^ buf1;
 1607              		.loc 1 385 0 discriminator 2
 1608 0414 4840     		eors	r0, r0, r1
 1609              	.LVL130:
 1610 0416 4640     		eors	r6, r6, r0
 1611              	.LVL131:
 1612 0418 F6B2     		uxtb	r6, r6
 1613              		.loc 1 387 0 discriminator 2
 1614 041a 0A9F     		ldr	r7, [sp, #40]
 385:../libraries/CC3000_Host_Driver/security.c ****     buf3 = state[7]^buf2;     buf3=galois_mul2(buf3); state[7] = state[7] ^ buf3 ^ buf1;
 1615              		.loc 1 385 0 discriminator 2
 1616 041c 0596     		str	r6, [sp, #20]
 1617 041e E671     		strb	r6, [r4, #7]
 1618              		.loc 1 387 0 discriminator 2
 1619 0420 0998     		ldr	r0, [sp, #36]
 1620 0422 0B9E     		ldr	r6, [sp, #44]
 1621 0424 5040     		eors	r0, r0, r2
 1622 0426 7E40     		eors	r6, r6, r7
 1623 0428 86EA0007 		eor	r7, r6, r0
 1624              	.LVL132:
 388:../libraries/CC3000_Host_Driver/security.c ****     buf2 = state[8];
 389:../libraries/CC3000_Host_Driver/security.c ****     buf3 = state[8]^state[9];   buf3=galois_mul2(buf3); state[8] = state[8] ^ buf3 ^ buf1;
 1625              		.loc 1 389 0 discriminator 2
 1626 042c FFF7FEFF 		bl	galois_mul2
 1627              	.LVL133:
 1628 0430 DDF820A0 		ldr	sl, [sp, #32]
 1629 0434 8AEA0003 		eor	r3, sl, r0
 1630 0438 87EA030C 		eor	ip, r7, r3
 1631 043c 5FFA8CF8 		uxtb	r8, ip
 1632 0440 84F80880 		strb	r8, [r4, #8]
 1633              	.LVL134:
 390:../libraries/CC3000_Host_Driver/security.c ****     buf3 = state[9]^state[10];  buf3=galois_mul2(buf3); state[9] = state[9] ^ buf3 ^ buf1;
 1634              		.loc 1 390 0 discriminator 2
 1635 0444 0999     		ldr	r1, [sp, #36]
 1636 0446 0A98     		ldr	r0, [sp, #40]
 1637 0448 4840     		eors	r0, r0, r1
 1638 044a FFF7FEFF 		bl	galois_mul2
 1639              	.LVL135:
 1640 044e 099A     		ldr	r2, [sp, #36]
 1641 0450 5040     		eors	r0, r0, r2
 1642              	.LVL136:
 1643 0452 87EA000B 		eor	fp, r7, r0
 1644 0456 5FFA8BF9 		uxtb	r9, fp
 391:../libraries/CC3000_Host_Driver/security.c ****     buf3 = state[10]^state[11]; buf3=galois_mul2(buf3); state[10] = state[10] ^ buf3 ^ buf1;
 1645              		.loc 1 391 0 discriminator 2
 1646 045a 3046     		mov	r0, r6
 390:../libraries/CC3000_Host_Driver/security.c ****     buf3 = state[9]^state[10];  buf3=galois_mul2(buf3); state[9] = state[9] ^ buf3 ^ buf1;
 1647              		.loc 1 390 0 discriminator 2
 1648 045c 84F80990 		strb	r9, [r4, #9]
 1649              	.LVL137:
 1650              		.loc 1 391 0 discriminator 2
 1651 0460 FFF7FEFF 		bl	galois_mul2
 1652              	.LVL138:
 1653 0464 0A9E     		ldr	r6, [sp, #40]
 392:../libraries/CC3000_Host_Driver/security.c ****     buf3 = state[11]^buf2;      buf3=galois_mul2(buf3); state[11] = state[11] ^ buf3 ^ buf1;
 1654              		.loc 1 392 0 discriminator 2
 1655 0466 5246     		mov	r2, sl
 391:../libraries/CC3000_Host_Driver/security.c ****     buf3 = state[10]^state[11]; buf3=galois_mul2(buf3); state[10] = state[10] ^ buf3 ^ buf1;
 1656              		.loc 1 391 0 discriminator 2
 1657 0468 86EA0003 		eor	r3, r6, r0
 1658 046c 87EA0301 		eor	r1, r7, r3
 1659              		.loc 1 392 0 discriminator 2
 1660 0470 0B98     		ldr	r0, [sp, #44]
 391:../libraries/CC3000_Host_Driver/security.c ****     buf3 = state[10]^state[11]; buf3=galois_mul2(buf3); state[10] = state[10] ^ buf3 ^ buf1;
 1661              		.loc 1 391 0 discriminator 2
 1662 0472 5FFA81FB 		uxtb	fp, r1
 1663              		.loc 1 392 0 discriminator 2
 1664 0476 5040     		eors	r0, r0, r2
 391:../libraries/CC3000_Host_Driver/security.c ****     buf3 = state[10]^state[11]; buf3=galois_mul2(buf3); state[10] = state[10] ^ buf3 ^ buf1;
 1665              		.loc 1 391 0 discriminator 2
 1666 0478 84F80AB0 		strb	fp, [r4, #10]
 1667              		.loc 1 392 0 discriminator 2
 1668 047c FFF7FEFF 		bl	galois_mul2
 1669              	.LVL139:
 1670 0480 DDF82CA0 		ldr	sl, [sp, #44]
 393:../libraries/CC3000_Host_Driver/security.c ****     // col4
 394:../libraries/CC3000_Host_Driver/security.c ****     buf1 = state[12] ^ state[13] ^ state[14] ^ state[15];
 1671              		.loc 1 394 0 discriminator 2
 1672 0484 0E99     		ldr	r1, [sp, #56]
 392:../libraries/CC3000_Host_Driver/security.c ****     buf3 = state[11]^buf2;      buf3=galois_mul2(buf3); state[11] = state[11] ^ buf3 ^ buf1;
 1673              		.loc 1 392 0 discriminator 2
 1674 0486 8AEA0000 		eor	r0, sl, r0
 1675              	.LVL140:
 1676              		.loc 1 394 0 discriminator 2
 1677 048a 0C9E     		ldr	r6, [sp, #48]
 392:../libraries/CC3000_Host_Driver/security.c ****     buf3 = state[11]^buf2;      buf3=galois_mul2(buf3); state[11] = state[11] ^ buf3 ^ buf1;
 1678              		.loc 1 392 0 discriminator 2
 1679 048c 4740     		eors	r7, r7, r0
 1680              	.LVL141:
 1681              		.loc 1 394 0 discriminator 2
 1682 048e 0F9B     		ldr	r3, [sp, #60]
 1683 0490 0D98     		ldr	r0, [sp, #52]
 392:../libraries/CC3000_Host_Driver/security.c ****     buf3 = state[11]^buf2;      buf3=galois_mul2(buf3); state[11] = state[11] ^ buf3 ^ buf1;
 1684              		.loc 1 392 0 discriminator 2
 1685 0492 FFB2     		uxtb	r7, r7
 1686              		.loc 1 394 0 discriminator 2
 1687 0494 4B40     		eors	r3, r3, r1
 1688 0496 7040     		eors	r0, r0, r6
 392:../libraries/CC3000_Host_Driver/security.c ****     buf3 = state[11]^buf2;      buf3=galois_mul2(buf3); state[11] = state[11] ^ buf3 ^ buf1;
 1689              		.loc 1 392 0 discriminator 2
 1690 0498 E772     		strb	r7, [r4, #11]
 1691              		.loc 1 394 0 discriminator 2
 1692 049a 83EA000A 		eor	sl, r3, r0
 1693              	.LVL142:
 395:../libraries/CC3000_Host_Driver/security.c ****     buf2 = state[12];
 396:../libraries/CC3000_Host_Driver/security.c ****     buf3 = state[12]^state[13]; buf3=galois_mul2(buf3); state[12] = state[12] ^ buf3 ^ buf1;
 1694              		.loc 1 396 0 discriminator 2
 1695 049e 0293     		str	r3, [sp, #8]
 1696 04a0 FFF7FEFF 		bl	galois_mul2
 1697              	.LVL143:
 1698 04a4 0C9A     		ldr	r2, [sp, #48]
 397:../libraries/CC3000_Host_Driver/security.c ****     buf3 = state[13]^state[14]; buf3=galois_mul2(buf3); state[13] = state[13] ^ buf3 ^ buf1;
 1699              		.loc 1 397 0 discriminator 2
 1700 04a6 0D9B     		ldr	r3, [sp, #52]
 396:../libraries/CC3000_Host_Driver/security.c ****     buf3 = state[12]^state[13]; buf3=galois_mul2(buf3); state[12] = state[12] ^ buf3 ^ buf1;
 1701              		.loc 1 396 0 discriminator 2
 1702 04a8 5040     		eors	r0, r0, r2
 1703 04aa 8AEA0006 		eor	r6, sl, r0
 1704              		.loc 1 397 0 discriminator 2
 1705 04ae 0E98     		ldr	r0, [sp, #56]
 396:../libraries/CC3000_Host_Driver/security.c ****     buf3 = state[12]^state[13]; buf3=galois_mul2(buf3); state[12] = state[12] ^ buf3 ^ buf1;
 1706              		.loc 1 396 0 discriminator 2
 1707 04b0 F6B2     		uxtb	r6, r6
 1708 04b2 2673     		strb	r6, [r4, #12]
 1709              		.loc 1 397 0 discriminator 2
 1710 04b4 5840     		eors	r0, r0, r3
 1711 04b6 FFF7FEFF 		bl	galois_mul2
 1712              	.LVL144:
 1713 04ba 0D99     		ldr	r1, [sp, #52]
 398:../libraries/CC3000_Host_Driver/security.c ****     buf3 = state[14]^state[15]; buf3=galois_mul2(buf3); state[14] = state[14] ^ buf3 ^ buf1;
 1714              		.loc 1 398 0 discriminator 2
 1715 04bc 029B     		ldr	r3, [sp, #8]
 397:../libraries/CC3000_Host_Driver/security.c ****     buf3 = state[13]^state[14]; buf3=galois_mul2(buf3); state[13] = state[13] ^ buf3 ^ buf1;
 1716              		.loc 1 397 0 discriminator 2
 1717 04be 81EA0002 		eor	r2, r1, r0
 1718 04c2 8AEA0200 		eor	r0, sl, r2
 1719              	.LVL145:
 1720 04c6 C1B2     		uxtb	r1, r0
 1721 04c8 6173     		strb	r1, [r4, #13]
 1722              	.LVL146:
 1723              		.loc 1 398 0 discriminator 2
 1724 04ca 1846     		mov	r0, r3
 1725 04cc 0391     		str	r1, [sp, #12]
 1726 04ce FFF7FEFF 		bl	galois_mul2
 1727              	.LVL147:
 1728 04d2 0E9A     		ldr	r2, [sp, #56]
 399:../libraries/CC3000_Host_Driver/security.c ****     buf3 = state[15]^buf2;      buf3=galois_mul2(buf3); state[15] = state[15] ^ buf3 ^ buf1;    
 1729              		.loc 1 399 0 discriminator 2
 1730 04d4 0C9B     		ldr	r3, [sp, #48]
 398:../libraries/CC3000_Host_Driver/security.c ****     buf3 = state[14]^state[15]; buf3=galois_mul2(buf3); state[14] = state[14] ^ buf3 ^ buf1;
 1731              		.loc 1 398 0 discriminator 2
 1732 04d6 5040     		eors	r0, r0, r2
 1733 04d8 8AEA0001 		eor	r1, sl, r0
 1734              		.loc 1 399 0 discriminator 2
 1735 04dc 0F98     		ldr	r0, [sp, #60]
 398:../libraries/CC3000_Host_Driver/security.c ****     buf3 = state[14]^state[15]; buf3=galois_mul2(buf3); state[14] = state[14] ^ buf3 ^ buf1;
 1736              		.loc 1 398 0 discriminator 2
 1737 04de CAB2     		uxtb	r2, r1
 1738 04e0 A273     		strb	r2, [r4, #14]
 1739              		.loc 1 399 0 discriminator 2
 1740 04e2 5840     		eors	r0, r0, r3
 1741 04e4 0492     		str	r2, [sp, #16]
 1742 04e6 FFF7FEFF 		bl	galois_mul2
 1743              	.LVL148:
 1744 04ea 0F99     		ldr	r1, [sp, #60]
 400:../libraries/CC3000_Host_Driver/security.c **** 		
 401:../libraries/CC3000_Host_Driver/security.c ****     // addroundkey, rsbox and shiftrows
 402:../libraries/CC3000_Host_Driver/security.c ****     // row 0
 403:../libraries/CC3000_Host_Driver/security.c ****     state[ 0]  = rsbox[state[ 0]] ^ expandedKey[(round*16)     ];
 1745              		.loc 1 403 0 discriminator 2
 1746 04ec 514B     		ldr	r3, .L24
 399:../libraries/CC3000_Host_Driver/security.c ****     buf3 = state[15]^buf2;      buf3=galois_mul2(buf3); state[15] = state[15] ^ buf3 ^ buf1;    
 1747              		.loc 1 399 0 discriminator 2
 1748 04ee 4840     		eors	r0, r0, r1
 1749              	.LVL149:
 1750 04f0 8AEA000C 		eor	ip, sl, r0
 1751 04f4 5FFA8CFA 		uxtb	sl, ip
 1752              	.LVL150:
 1753              		.loc 1 403 0 discriminator 2
 1754 04f8 DDF804C0 		ldr	ip, [sp, #4]
 399:../libraries/CC3000_Host_Driver/security.c ****     buf3 = state[15]^buf2;      buf3=galois_mul2(buf3); state[15] = state[15] ^ buf3 ^ buf1;    
 1755              		.loc 1 399 0 discriminator 2
 1756 04fc 84F80FA0 		strb	sl, [r4, #15]
 1757              		.loc 1 403 0 discriminator 2
 1758 0500 03EB0C02 		add	r2, r3, ip
 1759 0504 95F88000 		ldrb	r0, [r5, #128]	@ zero_extendqisi2
 1760 0508 92F80B11 		ldrb	r1, [r2, #267]	@ zero_extendqisi2
 404:../libraries/CC3000_Host_Driver/security.c ****     state[ 4]  = rsbox[state[ 4]] ^ expandedKey[(round*16) +  4];
 1761              		.loc 1 404 0 discriminator 2
 1762 050c DDF850C0 		ldr	ip, [sp, #80]
 403:../libraries/CC3000_Host_Driver/security.c ****     state[ 0]  = rsbox[state[ 0]] ^ expandedKey[(round*16)     ];
 1763              		.loc 1 403 0 discriminator 2
 1764 0510 81EA0002 		eor	r2, r1, r0
 1765 0514 2270     		strb	r2, [r4, #0]
 1766              		.loc 1 404 0 discriminator 2
 1767 0516 03EB0C01 		add	r1, r3, ip
 1768 051a 95F88400 		ldrb	r0, [r5, #132]	@ zero_extendqisi2
 1769 051e 91F80B21 		ldrb	r2, [r1, #267]	@ zero_extendqisi2
 405:../libraries/CC3000_Host_Driver/security.c ****     state[ 8]  = rsbox[state[ 8]] ^ expandedKey[(round*16) +  8];
 406:../libraries/CC3000_Host_Driver/security.c ****     state[12]  = rsbox[state[12]] ^ expandedKey[(round*16) + 12];
 1770              		.loc 1 406 0 discriminator 2
 1771 0522 9E19     		adds	r6, r3, r6
 404:../libraries/CC3000_Host_Driver/security.c ****     state[ 4]  = rsbox[state[ 4]] ^ expandedKey[(round*16) +  4];
 1772              		.loc 1 404 0 discriminator 2
 1773 0524 82EA0001 		eor	r1, r2, r0
 405:../libraries/CC3000_Host_Driver/security.c ****     state[ 8]  = rsbox[state[ 8]] ^ expandedKey[(round*16) +  8];
 1774              		.loc 1 405 0 discriminator 2
 1775 0528 03EB0802 		add	r2, r3, r8
 404:../libraries/CC3000_Host_Driver/security.c ****     state[ 4]  = rsbox[state[ 4]] ^ expandedKey[(round*16) +  4];
 1776              		.loc 1 404 0 discriminator 2
 1777 052c 2171     		strb	r1, [r4, #4]
 405:../libraries/CC3000_Host_Driver/security.c ****     state[ 8]  = rsbox[state[ 8]] ^ expandedKey[(round*16) +  8];
 1778              		.loc 1 405 0 discriminator 2
 1779 052e 95F88800 		ldrb	r0, [r5, #136]	@ zero_extendqisi2
 1780 0532 92F80BC1 		ldrb	ip, [r2, #267]	@ zero_extendqisi2
 1781              		.loc 1 406 0 discriminator 2
 1782 0536 96F80B21 		ldrb	r2, [r6, #267]	@ zero_extendqisi2
 405:../libraries/CC3000_Host_Driver/security.c ****     state[ 8]  = rsbox[state[ 8]] ^ expandedKey[(round*16) +  8];
 1783              		.loc 1 405 0 discriminator 2
 1784 053a 8CEA0001 		eor	r1, ip, r0
 1785 053e 2172     		strb	r1, [r4, #8]
 1786              		.loc 1 406 0 discriminator 2
 1787 0540 95F88C00 		ldrb	r0, [r5, #140]	@ zero_extendqisi2
 407:../libraries/CC3000_Host_Driver/security.c ****     // row 1
 408:../libraries/CC3000_Host_Driver/security.c ****     buf1 =       rsbox[state[13]] ^ expandedKey[(round*16) +  1];
 1788              		.loc 1 408 0 discriminator 2
 1789 0544 039E     		ldr	r6, [sp, #12]
 406:../libraries/CC3000_Host_Driver/security.c ****     state[12]  = rsbox[state[12]] ^ expandedKey[(round*16) + 12];
 1790              		.loc 1 406 0 discriminator 2
 1791 0546 82EA0001 		eor	r1, r2, r0
 1792 054a 2173     		strb	r1, [r4, #12]
 1793              		.loc 1 408 0 discriminator 2
 1794 054c 9A19     		adds	r2, r3, r6
 1795 054e 95F88110 		ldrb	r1, [r5, #129]	@ zero_extendqisi2
 1796 0552 92F80B01 		ldrb	r0, [r2, #267]	@ zero_extendqisi2
 409:../libraries/CC3000_Host_Driver/security.c ****     state[13]  = rsbox[state[ 9]] ^ expandedKey[(round*16) + 13];
 1797              		.loc 1 409 0 discriminator 2
 1798 0556 03EB0906 		add	r6, r3, r9
 408:../libraries/CC3000_Host_Driver/security.c ****     buf1 =       rsbox[state[13]] ^ expandedKey[(round*16) +  1];
 1799              		.loc 1 408 0 discriminator 2
 1800 055a 80EA0102 		eor	r2, r0, r1
 1801              	.LVL151:
 1802              		.loc 1 409 0 discriminator 2
 1803 055e 95F88D00 		ldrb	r0, [r5, #141]	@ zero_extendqisi2
 1804 0562 96F80B11 		ldrb	r1, [r6, #267]	@ zero_extendqisi2
 410:../libraries/CC3000_Host_Driver/security.c ****     state[ 9]  = rsbox[state[ 5]] ^ expandedKey[(round*16) +  9];
 411:../libraries/CC3000_Host_Driver/security.c ****     state[ 5]  = rsbox[state[ 1]] ^ expandedKey[(round*16) +  5];
 1805              		.loc 1 411 0 discriminator 2
 1806 0566 DDF844C0 		ldr	ip, [sp, #68]
 409:../libraries/CC3000_Host_Driver/security.c ****     state[13]  = rsbox[state[ 9]] ^ expandedKey[(round*16) + 13];
 1807              		.loc 1 409 0 discriminator 2
 1808 056a 81EA0006 		eor	r6, r1, r0
 410:../libraries/CC3000_Host_Driver/security.c ****     state[ 9]  = rsbox[state[ 5]] ^ expandedKey[(round*16) +  9];
 1809              		.loc 1 410 0 discriminator 2
 1810 056e 1599     		ldr	r1, [sp, #84]
 409:../libraries/CC3000_Host_Driver/security.c ****     state[13]  = rsbox[state[ 9]] ^ expandedKey[(round*16) + 13];
 1811              		.loc 1 409 0 discriminator 2
 1812 0570 6673     		strb	r6, [r4, #13]
 410:../libraries/CC3000_Host_Driver/security.c ****     state[ 9]  = rsbox[state[ 5]] ^ expandedKey[(round*16) +  9];
 1813              		.loc 1 410 0 discriminator 2
 1814 0572 5818     		adds	r0, r3, r1
 1815 0574 90F80B61 		ldrb	r6, [r0, #267]	@ zero_extendqisi2
 1816 0578 95F88910 		ldrb	r1, [r5, #137]	@ zero_extendqisi2
 412:../libraries/CC3000_Host_Driver/security.c ****     state[ 1]  = buf1;
 413:../libraries/CC3000_Host_Driver/security.c ****     // row 2
 414:../libraries/CC3000_Host_Driver/security.c ****     buf1 =       rsbox[state[ 2]] ^ expandedKey[(round*16) + 10];
 415:../libraries/CC3000_Host_Driver/security.c ****     buf2 =       rsbox[state[ 6]] ^ expandedKey[(round*16) + 14];
 416:../libraries/CC3000_Host_Driver/security.c ****     state[ 2]  = rsbox[state[10]] ^ expandedKey[(round*16) +  2];
 417:../libraries/CC3000_Host_Driver/security.c ****     state[ 6]  = rsbox[state[14]] ^ expandedKey[(round*16) +  6];
 418:../libraries/CC3000_Host_Driver/security.c ****     state[10]  = buf1;
 419:../libraries/CC3000_Host_Driver/security.c ****     state[14]  = buf2;
 420:../libraries/CC3000_Host_Driver/security.c ****     // row 3
 421:../libraries/CC3000_Host_Driver/security.c ****     buf1 =       rsbox[state[ 3]] ^ expandedKey[(round*16) + 15];
 422:../libraries/CC3000_Host_Driver/security.c ****     state[ 3]  = rsbox[state[ 7]] ^ expandedKey[(round*16) +  3];
 423:../libraries/CC3000_Host_Driver/security.c ****     state[ 7]  = rsbox[state[11]] ^ expandedKey[(round*16) +  7];
 1817              		.loc 1 423 0 discriminator 2
 1818 057c DF19     		adds	r7, r3, r7
 410:../libraries/CC3000_Host_Driver/security.c ****     state[ 9]  = rsbox[state[ 5]] ^ expandedKey[(round*16) +  9];
 1819              		.loc 1 410 0 discriminator 2
 1820 057e 86EA0100 		eor	r0, r6, r1
 1821 0582 6072     		strb	r0, [r4, #9]
 411:../libraries/CC3000_Host_Driver/security.c ****     state[ 5]  = rsbox[state[ 1]] ^ expandedKey[(round*16) +  5];
 1822              		.loc 1 411 0 discriminator 2
 1823 0584 03EB0C06 		add	r6, r3, ip
 1824 0588 95F88500 		ldrb	r0, [r5, #133]	@ zero_extendqisi2
 1825 058c 96F80B11 		ldrb	r1, [r6, #267]	@ zero_extendqisi2
 412:../libraries/CC3000_Host_Driver/security.c ****     state[ 1]  = buf1;
 1826              		.loc 1 412 0 discriminator 2
 1827 0590 6270     		strb	r2, [r4, #1]
 414:../libraries/CC3000_Host_Driver/security.c ****     buf1 =       rsbox[state[ 2]] ^ expandedKey[(round*16) + 10];
 1828              		.loc 1 414 0 discriminator 2
 1829 0592 129A     		ldr	r2, [sp, #72]
 1830              	.LVL152:
 411:../libraries/CC3000_Host_Driver/security.c ****     state[ 5]  = rsbox[state[ 1]] ^ expandedKey[(round*16) +  5];
 1831              		.loc 1 411 0 discriminator 2
 1832 0594 81EA0006 		eor	r6, r1, r0
 1833 0598 6671     		strb	r6, [r4, #5]
 414:../libraries/CC3000_Host_Driver/security.c ****     buf1 =       rsbox[state[ 2]] ^ expandedKey[(round*16) + 10];
 1834              		.loc 1 414 0 discriminator 2
 1835 059a 9918     		adds	r1, r3, r2
 415:../libraries/CC3000_Host_Driver/security.c ****     buf2 =       rsbox[state[ 6]] ^ expandedKey[(round*16) + 14];
 1836              		.loc 1 415 0 discriminator 2
 1837 059c DDF818C0 		ldr	ip, [sp, #24]
 414:../libraries/CC3000_Host_Driver/security.c ****     buf1 =       rsbox[state[ 2]] ^ expandedKey[(round*16) + 10];
 1838              		.loc 1 414 0 discriminator 2
 1839 05a0 95F88A60 		ldrb	r6, [r5, #138]	@ zero_extendqisi2
 1840 05a4 91F80B01 		ldrb	r0, [r1, #267]	@ zero_extendqisi2
 415:../libraries/CC3000_Host_Driver/security.c ****     buf2 =       rsbox[state[ 6]] ^ expandedKey[(round*16) + 14];
 1841              		.loc 1 415 0 discriminator 2
 1842 05a8 03EB0C02 		add	r2, r3, ip
 1843 05ac 95F88E10 		ldrb	r1, [r5, #142]	@ zero_extendqisi2
 414:../libraries/CC3000_Host_Driver/security.c ****     buf1 =       rsbox[state[ 2]] ^ expandedKey[(round*16) + 10];
 1844              		.loc 1 414 0 discriminator 2
 1845 05b0 7040     		eors	r0, r0, r6
 1846              	.LVL153:
 415:../libraries/CC3000_Host_Driver/security.c ****     buf2 =       rsbox[state[ 6]] ^ expandedKey[(round*16) + 14];
 1847              		.loc 1 415 0 discriminator 2
 1848 05b2 92F80B61 		ldrb	r6, [r2, #267]	@ zero_extendqisi2
 416:../libraries/CC3000_Host_Driver/security.c ****     state[ 2]  = rsbox[state[10]] ^ expandedKey[(round*16) +  2];
 1849              		.loc 1 416 0 discriminator 2
 1850 05b6 03EB0B02 		add	r2, r3, fp
 415:../libraries/CC3000_Host_Driver/security.c ****     buf2 =       rsbox[state[ 6]] ^ expandedKey[(round*16) + 14];
 1851              		.loc 1 415 0 discriminator 2
 1852 05ba 7140     		eors	r1, r1, r6
 1853              	.LVL154:
 416:../libraries/CC3000_Host_Driver/security.c ****     state[ 2]  = rsbox[state[10]] ^ expandedKey[(round*16) +  2];
 1854              		.loc 1 416 0 discriminator 2
 1855 05bc 92F80BC1 		ldrb	ip, [r2, #267]	@ zero_extendqisi2
 1856 05c0 95F88260 		ldrb	r6, [r5, #130]	@ zero_extendqisi2
 1857 05c4 8CEA0602 		eor	r2, ip, r6
 417:../libraries/CC3000_Host_Driver/security.c ****     state[ 6]  = rsbox[state[14]] ^ expandedKey[(round*16) +  6];
 1858              		.loc 1 417 0 discriminator 2
 1859 05c8 049E     		ldr	r6, [sp, #16]
 416:../libraries/CC3000_Host_Driver/security.c ****     state[ 2]  = rsbox[state[10]] ^ expandedKey[(round*16) +  2];
 1860              		.loc 1 416 0 discriminator 2
 1861 05ca A270     		strb	r2, [r4, #2]
 417:../libraries/CC3000_Host_Driver/security.c ****     state[ 6]  = rsbox[state[14]] ^ expandedKey[(round*16) +  6];
 1862              		.loc 1 417 0 discriminator 2
 1863 05cc 9A19     		adds	r2, r3, r6
 1864 05ce 92F80B61 		ldrb	r6, [r2, #267]	@ zero_extendqisi2
 1865 05d2 95F88620 		ldrb	r2, [r5, #134]	@ zero_extendqisi2
 1866 05d6 5640     		eors	r6, r6, r2
 1867 05d8 A671     		strb	r6, [r4, #6]
 418:../libraries/CC3000_Host_Driver/security.c ****     state[10]  = buf1;
 1868              		.loc 1 418 0 discriminator 2
 1869 05da A072     		strb	r0, [r4, #10]
 421:../libraries/CC3000_Host_Driver/security.c ****     buf1 =       rsbox[state[ 3]] ^ expandedKey[(round*16) + 15];
 1870              		.loc 1 421 0 discriminator 2
 1871 05dc 1398     		ldr	r0, [sp, #76]
 1872              	.LVL155:
 419:../libraries/CC3000_Host_Driver/security.c ****     state[14]  = buf2;
 1873              		.loc 1 419 0 discriminator 2
 1874 05de A173     		strb	r1, [r4, #14]
 421:../libraries/CC3000_Host_Driver/security.c ****     buf1 =       rsbox[state[ 3]] ^ expandedKey[(round*16) + 15];
 1875              		.loc 1 421 0 discriminator 2
 1876 05e0 1918     		adds	r1, r3, r0
 1877              	.LVL156:
 1878 05e2 95F88F20 		ldrb	r2, [r5, #143]	@ zero_extendqisi2
 1879 05e6 91F80B61 		ldrb	r6, [r1, #267]	@ zero_extendqisi2
 422:../libraries/CC3000_Host_Driver/security.c ****     state[ 3]  = rsbox[state[ 7]] ^ expandedKey[(round*16) +  3];
 1880              		.loc 1 422 0 discriminator 2
 1881 05ea DDF814C0 		ldr	ip, [sp, #20]
 421:../libraries/CC3000_Host_Driver/security.c ****     buf1 =       rsbox[state[ 3]] ^ expandedKey[(round*16) + 15];
 1882              		.loc 1 421 0 discriminator 2
 1883 05ee 7240     		eors	r2, r2, r6
 1884              	.LVL157:
 422:../libraries/CC3000_Host_Driver/security.c ****     state[ 3]  = rsbox[state[ 7]] ^ expandedKey[(round*16) +  3];
 1885              		.loc 1 422 0 discriminator 2
 1886 05f0 03EB0C06 		add	r6, r3, ip
 1887 05f4 95F88310 		ldrb	r1, [r5, #131]	@ zero_extendqisi2
 1888 05f8 96F80B01 		ldrb	r0, [r6, #267]	@ zero_extendqisi2
 424:../libraries/CC3000_Host_Driver/security.c ****     state[11]  = rsbox[state[15]] ^ expandedKey[(round*16) + 11];
 1889              		.loc 1 424 0 discriminator 2
 1890 05fc 5344     		add	r3, r3, sl
 1891              	.LVL158:
 422:../libraries/CC3000_Host_Driver/security.c ****     state[ 3]  = rsbox[state[ 7]] ^ expandedKey[(round*16) +  3];
 1892              		.loc 1 422 0 discriminator 2
 1893 05fe 4840     		eors	r0, r0, r1
 1894 0600 E070     		strb	r0, [r4, #3]
 423:../libraries/CC3000_Host_Driver/security.c ****     state[ 7]  = rsbox[state[11]] ^ expandedKey[(round*16) +  7];
 1895              		.loc 1 423 0 discriminator 2
 1896 0602 95F88710 		ldrb	r1, [r5, #135]	@ zero_extendqisi2
 1897 0606 97F80B01 		ldrb	r0, [r7, #267]	@ zero_extendqisi2
 1898 060a 4840     		eors	r0, r0, r1
 1899 060c E071     		strb	r0, [r4, #7]
 1900              		.loc 1 424 0 discriminator 2
 1901 060e 95F88B00 		ldrb	r0, [r5, #139]	@ zero_extendqisi2
 1902 0612 93F80B11 		ldrb	r1, [r3, #267]	@ zero_extendqisi2
 425:../libraries/CC3000_Host_Driver/security.c ****     state[15]  = buf1;
 1903              		.loc 1 425 0 discriminator 2
 1904 0616 E273     		strb	r2, [r4, #15]
 1905 0618 109A     		ldr	r2, [sp, #64]
 1906              	.LVL159:
 424:../libraries/CC3000_Host_Driver/security.c ****     state[11]  = rsbox[state[15]] ^ expandedKey[(round*16) + 11];
 1907              		.loc 1 424 0 discriminator 2
 1908 061a 81EA0003 		eor	r3, r1, r0
 1909 061e 511E     		subs	r1, r2, #1
 1910 0620 103D     		subs	r5, r5, #16
 1911              	.LVL160:
 353:../libraries/CC3000_Host_Driver/security.c ****   for (round = 8; round >= 0; round--){
 1912              		.loc 1 353 0 discriminator 2
 1913 0622 11F0FF00 		ands	r0, r1, #255
 424:../libraries/CC3000_Host_Driver/security.c ****     state[11]  = rsbox[state[15]] ^ expandedKey[(round*16) + 11];
 1914              		.loc 1 424 0 discriminator 2
 1915 0626 E372     		strb	r3, [r4, #11]
 353:../libraries/CC3000_Host_Driver/security.c ****   for (round = 8; round >= 0; round--){
 1916              		.loc 1 353 0 discriminator 2
 1917 0628 1090     		str	r0, [sp, #64]
 1918 062a 7FF4EFAD 		bne	.L19
 426:../libraries/CC3000_Host_Driver/security.c ****   }
 427:../libraries/CC3000_Host_Driver/security.c **** 	
 428:../libraries/CC3000_Host_Driver/security.c **** } 
 1919              		.loc 1 428 0
 1920 062e 17B0     		add	sp, sp, #92
 1921 0630 BDE8F08F 		pop	{r4, r5, r6, r7, r8, r9, sl, fp, pc}
 1922              	.L25:
 1923              		.align	2
 1924              	.L24:
 1925 0634 00000000 		.word	.LANCHOR0
 1926              		.cfi_endproc
 1927              	.LFE3:
 1929              		.section	.text.aes_encrypt,"ax",%progbits
 1930              		.align	1
 1931              		.global	aes_encrypt
 1932              		.thumb
 1933              		.thumb_func
 1935              	aes_encrypt:
 1936              	.LFB4:
 429:../libraries/CC3000_Host_Driver/security.c **** 
 430:../libraries/CC3000_Host_Driver/security.c **** //*****************************************************************************
 431:../libraries/CC3000_Host_Driver/security.c **** //
 432:../libraries/CC3000_Host_Driver/security.c **** //!  aes_encrypt
 433:../libraries/CC3000_Host_Driver/security.c **** //!
 434:../libraries/CC3000_Host_Driver/security.c **** //!  @param[in]  key   AES128 key of size 16 bytes
 435:../libraries/CC3000_Host_Driver/security.c **** //!  @param[in\out] state   16 bytes of plain text and cipher text
 436:../libraries/CC3000_Host_Driver/security.c **** //!
 437:../libraries/CC3000_Host_Driver/security.c **** //!  @return  none
 438:../libraries/CC3000_Host_Driver/security.c **** //!
 439:../libraries/CC3000_Host_Driver/security.c **** //!  @brief   AES128 encryption:
 440:../libraries/CC3000_Host_Driver/security.c **** //!           Given AES128 key and  16 bytes plain text, cipher text of 16 bytes
 441:../libraries/CC3000_Host_Driver/security.c **** //!           is computed. The AES implementation is in mode ECB (Electronic 
 442:../libraries/CC3000_Host_Driver/security.c **** //!           Code Book). 
 443:../libraries/CC3000_Host_Driver/security.c **** //!	 
 444:../libraries/CC3000_Host_Driver/security.c **** //!
 445:../libraries/CC3000_Host_Driver/security.c **** //*****************************************************************************
 446:../libraries/CC3000_Host_Driver/security.c **** 
 447:../libraries/CC3000_Host_Driver/security.c **** void aes_encrypt(unsigned char *state,
 448:../libraries/CC3000_Host_Driver/security.c ****                  unsigned char *key)
 449:../libraries/CC3000_Host_Driver/security.c **** {
 1937              		.loc 1 449 0
 1938              		.cfi_startproc
 1939              		@ args = 0, pretend = 0, frame = 0
 1940              		@ frame_needed = 0, uses_anonymous_args = 0
 1941              	.LVL161:
 1942 0000 38B5     		push	{r3, r4, r5, lr}
 1943              	.LCFI5:
 1944              		.cfi_def_cfa_offset 16
 1945              		.cfi_offset 3, -16
 1946              		.cfi_offset 4, -12
 1947              		.cfi_offset 5, -8
 1948              		.cfi_offset 14, -4
 450:../libraries/CC3000_Host_Driver/security.c **** 	// expand the key into 176 bytes
 451:../libraries/CC3000_Host_Driver/security.c **** 	expandKey(expandedKey, key);       
 1949              		.loc 1 451 0
 1950 0002 054C     		ldr	r4, .L27
 449:../libraries/CC3000_Host_Driver/security.c **** {
 1951              		.loc 1 449 0
 1952 0004 0546     		mov	r5, r0
 1953              		.loc 1 451 0
 1954 0006 2046     		mov	r0, r4
 1955              	.LVL162:
 1956 0008 FFF7FEFF 		bl	expandKey
 1957              	.LVL163:
 452:../libraries/CC3000_Host_Driver/security.c **** 	aes_encr(state, expandedKey);
 1958              		.loc 1 452 0
 1959 000c 2846     		mov	r0, r5
 1960 000e 2146     		mov	r1, r4
 453:../libraries/CC3000_Host_Driver/security.c **** }
 1961              		.loc 1 453 0
 1962 0010 BDE83840 		pop	{r3, r4, r5, lr}
 452:../libraries/CC3000_Host_Driver/security.c **** 	aes_encr(state, expandedKey);
 1963              		.loc 1 452 0
 1964 0014 FFF7FEBF 		b	aes_encr
 1965              	.LVL164:
 1966              	.L28:
 1967              		.align	2
 1968              	.L27:
 1969 0018 00000000 		.word	expandedKey
 1970              		.cfi_endproc
 1971              	.LFE4:
 1973              		.section	.text.aes_decrypt,"ax",%progbits
 1974              		.align	1
 1975              		.global	aes_decrypt
 1976              		.thumb
 1977              		.thumb_func
 1979              	aes_decrypt:
 1980              	.LFB5:
 454:../libraries/CC3000_Host_Driver/security.c **** 
 455:../libraries/CC3000_Host_Driver/security.c **** //*****************************************************************************
 456:../libraries/CC3000_Host_Driver/security.c **** //
 457:../libraries/CC3000_Host_Driver/security.c **** //!  aes_decrypt
 458:../libraries/CC3000_Host_Driver/security.c **** //!
 459:../libraries/CC3000_Host_Driver/security.c **** //!  @param[in]  key   AES128 key of size 16 bytes
 460:../libraries/CC3000_Host_Driver/security.c **** //!  @param[in\out] state   16 bytes of cipher text and plain text
 461:../libraries/CC3000_Host_Driver/security.c **** //!
 462:../libraries/CC3000_Host_Driver/security.c **** //!  @return  none
 463:../libraries/CC3000_Host_Driver/security.c **** //!
 464:../libraries/CC3000_Host_Driver/security.c **** //!  @brief   AES128 decryption:
 465:../libraries/CC3000_Host_Driver/security.c **** //!           Given AES128 key and  16 bytes cipher text, plain text of 16 bytes
 466:../libraries/CC3000_Host_Driver/security.c **** //!           is computed The AES implementation is in mode ECB 
 467:../libraries/CC3000_Host_Driver/security.c **** //!           (Electronic Code Book).
 468:../libraries/CC3000_Host_Driver/security.c **** //!	 
 469:../libraries/CC3000_Host_Driver/security.c **** //!
 470:../libraries/CC3000_Host_Driver/security.c **** //*****************************************************************************
 471:../libraries/CC3000_Host_Driver/security.c **** 
 472:../libraries/CC3000_Host_Driver/security.c **** void aes_decrypt(unsigned char *state,
 473:../libraries/CC3000_Host_Driver/security.c ****                  unsigned char *key)
 474:../libraries/CC3000_Host_Driver/security.c **** {
 1981              		.loc 1 474 0
 1982              		.cfi_startproc
 1983              		@ args = 0, pretend = 0, frame = 0
 1984              		@ frame_needed = 0, uses_anonymous_args = 0
 1985              	.LVL165:
 1986 0000 38B5     		push	{r3, r4, r5, lr}
 1987              	.LCFI6:
 1988              		.cfi_def_cfa_offset 16
 1989              		.cfi_offset 3, -16
 1990              		.cfi_offset 4, -12
 1991              		.cfi_offset 5, -8
 1992              		.cfi_offset 14, -4
 475:../libraries/CC3000_Host_Driver/security.c ****     expandKey(expandedKey, key);       // expand the key into 176 bytes
 1993              		.loc 1 475 0
 1994 0002 054C     		ldr	r4, .L30
 474:../libraries/CC3000_Host_Driver/security.c **** {
 1995              		.loc 1 474 0
 1996 0004 0546     		mov	r5, r0
 1997              		.loc 1 475 0
 1998 0006 2046     		mov	r0, r4
 1999              	.LVL166:
 2000 0008 FFF7FEFF 		bl	expandKey
 2001              	.LVL167:
 476:../libraries/CC3000_Host_Driver/security.c ****     aes_decr(state, expandedKey);
 2002              		.loc 1 476 0
 2003 000c 2846     		mov	r0, r5
 2004 000e 2146     		mov	r1, r4
 477:../libraries/CC3000_Host_Driver/security.c **** }
 2005              		.loc 1 477 0
 2006 0010 BDE83840 		pop	{r3, r4, r5, lr}
 476:../libraries/CC3000_Host_Driver/security.c ****     aes_decr(state, expandedKey);
 2007              		.loc 1 476 0
 2008 0014 FFF7FEBF 		b	aes_decr
 2009              	.LVL168:
 2010              	.L31:
 2011              		.align	2
 2012              	.L30:
 2013 0018 00000000 		.word	expandedKey
 2014              		.cfi_endproc
 2015              	.LFE5:
 2017              		.section	.text.aes_read_key,"ax",%progbits
 2018              		.align	1
 2019              		.global	aes_read_key
 2020              		.thumb
 2021              		.thumb_func
 2023              	aes_read_key:
 2024              	.LFB6:
 478:../libraries/CC3000_Host_Driver/security.c **** 
 479:../libraries/CC3000_Host_Driver/security.c **** //*****************************************************************************
 480:../libraries/CC3000_Host_Driver/security.c **** //
 481:../libraries/CC3000_Host_Driver/security.c **** //!  aes_read_key
 482:../libraries/CC3000_Host_Driver/security.c **** //!
 483:../libraries/CC3000_Host_Driver/security.c **** //!  @param[out]  key   AES128 key of size 16 bytes
 484:../libraries/CC3000_Host_Driver/security.c **** //!
 485:../libraries/CC3000_Host_Driver/security.c **** //!  @return  on success 0, error otherwise.
 486:../libraries/CC3000_Host_Driver/security.c **** //!
 487:../libraries/CC3000_Host_Driver/security.c **** //!  @brief   Reads AES128 key from EEPROM
 488:../libraries/CC3000_Host_Driver/security.c **** //!           Reads the AES128 key from fileID #12 in EEPROM
 489:../libraries/CC3000_Host_Driver/security.c **** //!           returns an error if the key does not exist. 
 490:../libraries/CC3000_Host_Driver/security.c **** //!	 
 491:../libraries/CC3000_Host_Driver/security.c **** //!
 492:../libraries/CC3000_Host_Driver/security.c **** //*****************************************************************************
 493:../libraries/CC3000_Host_Driver/security.c **** 
 494:../libraries/CC3000_Host_Driver/security.c **** signed long aes_read_key(unsigned char *key)
 495:../libraries/CC3000_Host_Driver/security.c **** {
 2025              		.loc 1 495 0
 2026              		.cfi_startproc
 2027              		@ args = 0, pretend = 0, frame = 0
 2028              		@ frame_needed = 0, uses_anonymous_args = 0
 2029              		@ link register save eliminated.
 2030              	.LVL169:
 2031              		.loc 1 495 0
 2032 0000 0346     		mov	r3, r0
 496:../libraries/CC3000_Host_Driver/security.c **** 	signed long	returnValue;
 497:../libraries/CC3000_Host_Driver/security.c **** 	
 498:../libraries/CC3000_Host_Driver/security.c **** 	returnValue = nvmem_read(NVMEM_AES128_KEY_FILEID, AES128_KEY_SIZE, 0, key);
 2033              		.loc 1 498 0
 2034 0002 1021     		movs	r1, #16
 2035 0004 0C20     		movs	r0, #12
 2036              	.LVL170:
 2037 0006 0022     		movs	r2, #0
 499:../libraries/CC3000_Host_Driver/security.c **** 
 500:../libraries/CC3000_Host_Driver/security.c **** 	return returnValue;
 501:../libraries/CC3000_Host_Driver/security.c **** }
 2038              		.loc 1 501 0
 498:../libraries/CC3000_Host_Driver/security.c **** 	returnValue = nvmem_read(NVMEM_AES128_KEY_FILEID, AES128_KEY_SIZE, 0, key);
 2039              		.loc 1 498 0
 2040 0008 FFF7FEBF 		b	nvmem_read
 2041              	.LVL171:
 2042              		.cfi_endproc
 2043              	.LFE6:
 2045              		.section	.text.aes_write_key,"ax",%progbits
 2046              		.align	1
 2047              		.global	aes_write_key
 2048              		.thumb
 2049              		.thumb_func
 2051              	aes_write_key:
 2052              	.LFB7:
 502:../libraries/CC3000_Host_Driver/security.c **** 
 503:../libraries/CC3000_Host_Driver/security.c **** //*****************************************************************************
 504:../libraries/CC3000_Host_Driver/security.c **** //
 505:../libraries/CC3000_Host_Driver/security.c **** //!  aes_write_key
 506:../libraries/CC3000_Host_Driver/security.c **** //!
 507:../libraries/CC3000_Host_Driver/security.c **** //!  @param[out]  key   AES128 key of size 16 bytes
 508:../libraries/CC3000_Host_Driver/security.c **** //!
 509:../libraries/CC3000_Host_Driver/security.c **** //!  @return  on success 0, error otherwise.
 510:../libraries/CC3000_Host_Driver/security.c **** //!
 511:../libraries/CC3000_Host_Driver/security.c **** //!  @brief   writes AES128 key from EEPROM
 512:../libraries/CC3000_Host_Driver/security.c **** //!           Writes the AES128 key to fileID #12 in EEPROM
 513:../libraries/CC3000_Host_Driver/security.c **** //!	 
 514:../libraries/CC3000_Host_Driver/security.c **** //!
 515:../libraries/CC3000_Host_Driver/security.c **** //*****************************************************************************
 516:../libraries/CC3000_Host_Driver/security.c **** 
 517:../libraries/CC3000_Host_Driver/security.c **** signed long aes_write_key(unsigned char *key)
 518:../libraries/CC3000_Host_Driver/security.c **** {
 2053              		.loc 1 518 0
 2054              		.cfi_startproc
 2055              		@ args = 0, pretend = 0, frame = 0
 2056              		@ frame_needed = 0, uses_anonymous_args = 0
 2057              		@ link register save eliminated.
 2058              	.LVL172:
 2059              		.loc 1 518 0
 2060 0000 0346     		mov	r3, r0
 519:../libraries/CC3000_Host_Driver/security.c **** 	signed long	returnValue;
 520:../libraries/CC3000_Host_Driver/security.c **** 
 521:../libraries/CC3000_Host_Driver/security.c **** 	returnValue = nvmem_write(NVMEM_AES128_KEY_FILEID, AES128_KEY_SIZE, 0, key);
 2061              		.loc 1 521 0
 2062 0002 1021     		movs	r1, #16
 2063 0004 0C20     		movs	r0, #12
 2064              	.LVL173:
 2065 0006 0022     		movs	r2, #0
 522:../libraries/CC3000_Host_Driver/security.c **** 
 523:../libraries/CC3000_Host_Driver/security.c **** 	return returnValue;
 524:../libraries/CC3000_Host_Driver/security.c **** }
 2066              		.loc 1 524 0
 521:../libraries/CC3000_Host_Driver/security.c **** 	returnValue = nvmem_write(NVMEM_AES128_KEY_FILEID, AES128_KEY_SIZE, 0, key);
 2067              		.loc 1 521 0
 2068 0008 FFF7FEBF 		b	nvmem_write
 2069              	.LVL174:
 2070              		.cfi_endproc
 2071              	.LFE7:
 2073              		.comm	expandedKey,176,1
 2074              		.global	Rcon
 2075              		.global	rsbox
 2076              		.global	sbox
 2077              		.section	.rodata
 2078              		.set	.LANCHOR0,. + 0
 2081              	Rcon:
 2082 0000 8D       		.byte	-115
 2083 0001 01       		.byte	1
 2084 0002 02       		.byte	2
 2085 0003 04       		.byte	4
 2086 0004 08       		.byte	8
 2087 0005 10       		.byte	16
 2088 0006 20       		.byte	32
 2089 0007 40       		.byte	64
 2090 0008 80       		.byte	-128
 2091 0009 1B       		.byte	27
 2092 000a 36       		.byte	54
 2095              	sbox:
 2096 000b 63       		.byte	99
 2097 000c 7C       		.byte	124
 2098 000d 77       		.byte	119
 2099 000e 7B       		.byte	123
 2100 000f F2       		.byte	-14
 2101 0010 6B       		.byte	107
 2102 0011 6F       		.byte	111
 2103 0012 C5       		.byte	-59
 2104 0013 30       		.byte	48
 2105 0014 01       		.byte	1
 2106 0015 67       		.byte	103
 2107 0016 2B       		.byte	43
 2108 0017 FE       		.byte	-2
 2109 0018 D7       		.byte	-41
 2110 0019 AB       		.byte	-85
 2111 001a 76       		.byte	118
 2112 001b CA       		.byte	-54
 2113 001c 82       		.byte	-126
 2114 001d C9       		.byte	-55
 2115 001e 7D       		.byte	125
 2116 001f FA       		.byte	-6
 2117 0020 59       		.byte	89
 2118 0021 47       		.byte	71
 2119 0022 F0       		.byte	-16
 2120 0023 AD       		.byte	-83
 2121 0024 D4       		.byte	-44
 2122 0025 A2       		.byte	-94
 2123 0026 AF       		.byte	-81
 2124 0027 9C       		.byte	-100
 2125 0028 A4       		.byte	-92
 2126 0029 72       		.byte	114
 2127 002a C0       		.byte	-64
 2128 002b B7       		.byte	-73
 2129 002c FD       		.byte	-3
 2130 002d 93       		.byte	-109
 2131 002e 26       		.byte	38
 2132 002f 36       		.byte	54
 2133 0030 3F       		.byte	63
 2134 0031 F7       		.byte	-9
 2135 0032 CC       		.byte	-52
 2136 0033 34       		.byte	52
 2137 0034 A5       		.byte	-91
 2138 0035 E5       		.byte	-27
 2139 0036 F1       		.byte	-15
 2140 0037 71       		.byte	113
 2141 0038 D8       		.byte	-40
 2142 0039 31       		.byte	49
 2143 003a 15       		.byte	21
 2144 003b 04       		.byte	4
 2145 003c C7       		.byte	-57
 2146 003d 23       		.byte	35
 2147 003e C3       		.byte	-61
 2148 003f 18       		.byte	24
 2149 0040 96       		.byte	-106
 2150 0041 05       		.byte	5
 2151 0042 9A       		.byte	-102
 2152 0043 07       		.byte	7
 2153 0044 12       		.byte	18
 2154 0045 80       		.byte	-128
 2155 0046 E2       		.byte	-30
 2156 0047 EB       		.byte	-21
 2157 0048 27       		.byte	39
 2158 0049 B2       		.byte	-78
 2159 004a 75       		.byte	117
 2160 004b 09       		.byte	9
 2161 004c 83       		.byte	-125
 2162 004d 2C       		.byte	44
 2163 004e 1A       		.byte	26
 2164 004f 1B       		.byte	27
 2165 0050 6E       		.byte	110
 2166 0051 5A       		.byte	90
 2167 0052 A0       		.byte	-96
 2168 0053 52       		.byte	82
 2169 0054 3B       		.byte	59
 2170 0055 D6       		.byte	-42
 2171 0056 B3       		.byte	-77
 2172 0057 29       		.byte	41
 2173 0058 E3       		.byte	-29
 2174 0059 2F       		.byte	47
 2175 005a 84       		.byte	-124
 2176 005b 53       		.byte	83
 2177 005c D1       		.byte	-47
 2178 005d 00       		.byte	0
 2179 005e ED       		.byte	-19
 2180 005f 20       		.byte	32
 2181 0060 FC       		.byte	-4
 2182 0061 B1       		.byte	-79
 2183 0062 5B       		.byte	91
 2184 0063 6A       		.byte	106
 2185 0064 CB       		.byte	-53
 2186 0065 BE       		.byte	-66
 2187 0066 39       		.byte	57
 2188 0067 4A       		.byte	74
 2189 0068 4C       		.byte	76
 2190 0069 58       		.byte	88
 2191 006a CF       		.byte	-49
 2192 006b D0       		.byte	-48
 2193 006c EF       		.byte	-17
 2194 006d AA       		.byte	-86
 2195 006e FB       		.byte	-5
 2196 006f 43       		.byte	67
 2197 0070 4D       		.byte	77
 2198 0071 33       		.byte	51
 2199 0072 85       		.byte	-123
 2200 0073 45       		.byte	69
 2201 0074 F9       		.byte	-7
 2202 0075 02       		.byte	2
 2203 0076 7F       		.byte	127
 2204 0077 50       		.byte	80
 2205 0078 3C       		.byte	60
 2206 0079 9F       		.byte	-97
 2207 007a A8       		.byte	-88
 2208 007b 51       		.byte	81
 2209 007c A3       		.byte	-93
 2210 007d 40       		.byte	64
 2211 007e 8F       		.byte	-113
 2212 007f 92       		.byte	-110
 2213 0080 9D       		.byte	-99
 2214 0081 38       		.byte	56
 2215 0082 F5       		.byte	-11
 2216 0083 BC       		.byte	-68
 2217 0084 B6       		.byte	-74
 2218 0085 DA       		.byte	-38
 2219 0086 21       		.byte	33
 2220 0087 10       		.byte	16
 2221 0088 FF       		.byte	-1
 2222 0089 F3       		.byte	-13
 2223 008a D2       		.byte	-46
 2224 008b CD       		.byte	-51
 2225 008c 0C       		.byte	12
 2226 008d 13       		.byte	19
 2227 008e EC       		.byte	-20
 2228 008f 5F       		.byte	95
 2229 0090 97       		.byte	-105
 2230 0091 44       		.byte	68
 2231 0092 17       		.byte	23
 2232 0093 C4       		.byte	-60
 2233 0094 A7       		.byte	-89
 2234 0095 7E       		.byte	126
 2235 0096 3D       		.byte	61
 2236 0097 64       		.byte	100
 2237 0098 5D       		.byte	93
 2238 0099 19       		.byte	25
 2239 009a 73       		.byte	115
 2240 009b 60       		.byte	96
 2241 009c 81       		.byte	-127
 2242 009d 4F       		.byte	79
 2243 009e DC       		.byte	-36
 2244 009f 22       		.byte	34
 2245 00a0 2A       		.byte	42
 2246 00a1 90       		.byte	-112
 2247 00a2 88       		.byte	-120
 2248 00a3 46       		.byte	70
 2249 00a4 EE       		.byte	-18
 2250 00a5 B8       		.byte	-72
 2251 00a6 14       		.byte	20
 2252 00a7 DE       		.byte	-34
 2253 00a8 5E       		.byte	94
 2254 00a9 0B       		.byte	11
 2255 00aa DB       		.byte	-37
 2256 00ab E0       		.byte	-32
 2257 00ac 32       		.byte	50
 2258 00ad 3A       		.byte	58
 2259 00ae 0A       		.byte	10
 2260 00af 49       		.byte	73
 2261 00b0 06       		.byte	6
 2262 00b1 24       		.byte	36
 2263 00b2 5C       		.byte	92
 2264 00b3 C2       		.byte	-62
 2265 00b4 D3       		.byte	-45
 2266 00b5 AC       		.byte	-84
 2267 00b6 62       		.byte	98
 2268 00b7 91       		.byte	-111
 2269 00b8 95       		.byte	-107
 2270 00b9 E4       		.byte	-28
 2271 00ba 79       		.byte	121
 2272 00bb E7       		.byte	-25
 2273 00bc C8       		.byte	-56
 2274 00bd 37       		.byte	55
 2275 00be 6D       		.byte	109
 2276 00bf 8D       		.byte	-115
 2277 00c0 D5       		.byte	-43
 2278 00c1 4E       		.byte	78
 2279 00c2 A9       		.byte	-87
 2280 00c3 6C       		.byte	108
 2281 00c4 56       		.byte	86
 2282 00c5 F4       		.byte	-12
 2283 00c6 EA       		.byte	-22
 2284 00c7 65       		.byte	101
 2285 00c8 7A       		.byte	122
 2286 00c9 AE       		.byte	-82
 2287 00ca 08       		.byte	8
 2288 00cb BA       		.byte	-70
 2289 00cc 78       		.byte	120
 2290 00cd 25       		.byte	37
 2291 00ce 2E       		.byte	46
 2292 00cf 1C       		.byte	28
 2293 00d0 A6       		.byte	-90
 2294 00d1 B4       		.byte	-76
 2295 00d2 C6       		.byte	-58
 2296 00d3 E8       		.byte	-24
 2297 00d4 DD       		.byte	-35
 2298 00d5 74       		.byte	116
 2299 00d6 1F       		.byte	31
 2300 00d7 4B       		.byte	75
 2301 00d8 BD       		.byte	-67
 2302 00d9 8B       		.byte	-117
 2303 00da 8A       		.byte	-118
 2304 00db 70       		.byte	112
 2305 00dc 3E       		.byte	62
 2306 00dd B5       		.byte	-75
 2307 00de 66       		.byte	102
 2308 00df 48       		.byte	72
 2309 00e0 03       		.byte	3
 2310 00e1 F6       		.byte	-10
 2311 00e2 0E       		.byte	14
 2312 00e3 61       		.byte	97
 2313 00e4 35       		.byte	53
 2314 00e5 57       		.byte	87
 2315 00e6 B9       		.byte	-71
 2316 00e7 86       		.byte	-122
 2317 00e8 C1       		.byte	-63
 2318 00e9 1D       		.byte	29
 2319 00ea 9E       		.byte	-98
 2320 00eb E1       		.byte	-31
 2321 00ec F8       		.byte	-8
 2322 00ed 98       		.byte	-104
 2323 00ee 11       		.byte	17
 2324 00ef 69       		.byte	105
 2325 00f0 D9       		.byte	-39
 2326 00f1 8E       		.byte	-114
 2327 00f2 94       		.byte	-108
 2328 00f3 9B       		.byte	-101
 2329 00f4 1E       		.byte	30
 2330 00f5 87       		.byte	-121
 2331 00f6 E9       		.byte	-23
 2332 00f7 CE       		.byte	-50
 2333 00f8 55       		.byte	85
 2334 00f9 28       		.byte	40
 2335 00fa DF       		.byte	-33
 2336 00fb 8C       		.byte	-116
 2337 00fc A1       		.byte	-95
 2338 00fd 89       		.byte	-119
 2339 00fe 0D       		.byte	13
 2340 00ff BF       		.byte	-65
 2341 0100 E6       		.byte	-26
 2342 0101 42       		.byte	66
 2343 0102 68       		.byte	104
 2344 0103 41       		.byte	65
 2345 0104 99       		.byte	-103
 2346 0105 2D       		.byte	45
 2347 0106 0F       		.byte	15
 2348 0107 B0       		.byte	-80
 2349 0108 54       		.byte	84
 2350 0109 BB       		.byte	-69
 2351 010a 16       		.byte	22
 2354              	rsbox:
 2355 010b 52       		.byte	82
 2356 010c 09       		.byte	9
 2357 010d 6A       		.byte	106
 2358 010e D5       		.byte	-43
 2359 010f 30       		.byte	48
 2360 0110 36       		.byte	54
 2361 0111 A5       		.byte	-91
 2362 0112 38       		.byte	56
 2363 0113 BF       		.byte	-65
 2364 0114 40       		.byte	64
 2365 0115 A3       		.byte	-93
 2366 0116 9E       		.byte	-98
 2367 0117 81       		.byte	-127
 2368 0118 F3       		.byte	-13
 2369 0119 D7       		.byte	-41
 2370 011a FB       		.byte	-5
 2371 011b 7C       		.byte	124
 2372 011c E3       		.byte	-29
 2373 011d 39       		.byte	57
 2374 011e 82       		.byte	-126
 2375 011f 9B       		.byte	-101
 2376 0120 2F       		.byte	47
 2377 0121 FF       		.byte	-1
 2378 0122 87       		.byte	-121
 2379 0123 34       		.byte	52
 2380 0124 8E       		.byte	-114
 2381 0125 43       		.byte	67
 2382 0126 44       		.byte	68
 2383 0127 C4       		.byte	-60
 2384 0128 DE       		.byte	-34
 2385 0129 E9       		.byte	-23
 2386 012a CB       		.byte	-53
 2387 012b 54       		.byte	84
 2388 012c 7B       		.byte	123
 2389 012d 94       		.byte	-108
 2390 012e 32       		.byte	50
 2391 012f A6       		.byte	-90
 2392 0130 C2       		.byte	-62
 2393 0131 23       		.byte	35
 2394 0132 3D       		.byte	61
 2395 0133 EE       		.byte	-18
 2396 0134 4C       		.byte	76
 2397 0135 95       		.byte	-107
 2398 0136 0B       		.byte	11
 2399 0137 42       		.byte	66
 2400 0138 FA       		.byte	-6
 2401 0139 C3       		.byte	-61
 2402 013a 4E       		.byte	78
 2403 013b 08       		.byte	8
 2404 013c 2E       		.byte	46
 2405 013d A1       		.byte	-95
 2406 013e 66       		.byte	102
 2407 013f 28       		.byte	40
 2408 0140 D9       		.byte	-39
 2409 0141 24       		.byte	36
 2410 0142 B2       		.byte	-78
 2411 0143 76       		.byte	118
 2412 0144 5B       		.byte	91
 2413 0145 A2       		.byte	-94
 2414 0146 49       		.byte	73
 2415 0147 6D       		.byte	109
 2416 0148 8B       		.byte	-117
 2417 0149 D1       		.byte	-47
 2418 014a 25       		.byte	37
 2419 014b 72       		.byte	114
 2420 014c F8       		.byte	-8
 2421 014d F6       		.byte	-10
 2422 014e 64       		.byte	100
 2423 014f 86       		.byte	-122
 2424 0150 68       		.byte	104
 2425 0151 98       		.byte	-104
 2426 0152 16       		.byte	22
 2427 0153 D4       		.byte	-44
 2428 0154 A4       		.byte	-92
 2429 0155 5C       		.byte	92
 2430 0156 CC       		.byte	-52
 2431 0157 5D       		.byte	93
 2432 0158 65       		.byte	101
 2433 0159 B6       		.byte	-74
 2434 015a 92       		.byte	-110
 2435 015b 6C       		.byte	108
 2436 015c 70       		.byte	112
 2437 015d 48       		.byte	72
 2438 015e 50       		.byte	80
 2439 015f FD       		.byte	-3
 2440 0160 ED       		.byte	-19
 2441 0161 B9       		.byte	-71
 2442 0162 DA       		.byte	-38
 2443 0163 5E       		.byte	94
 2444 0164 15       		.byte	21
 2445 0165 46       		.byte	70
 2446 0166 57       		.byte	87
 2447 0167 A7       		.byte	-89
 2448 0168 8D       		.byte	-115
 2449 0169 9D       		.byte	-99
 2450 016a 84       		.byte	-124
 2451 016b 90       		.byte	-112
 2452 016c D8       		.byte	-40
 2453 016d AB       		.byte	-85
 2454 016e 00       		.byte	0
 2455 016f 8C       		.byte	-116
 2456 0170 BC       		.byte	-68
 2457 0171 D3       		.byte	-45
 2458 0172 0A       		.byte	10
 2459 0173 F7       		.byte	-9
 2460 0174 E4       		.byte	-28
 2461 0175 58       		.byte	88
 2462 0176 05       		.byte	5
 2463 0177 B8       		.byte	-72
 2464 0178 B3       		.byte	-77
 2465 0179 45       		.byte	69
 2466 017a 06       		.byte	6
 2467 017b D0       		.byte	-48
 2468 017c 2C       		.byte	44
 2469 017d 1E       		.byte	30
 2470 017e 8F       		.byte	-113
 2471 017f CA       		.byte	-54
 2472 0180 3F       		.byte	63
 2473 0181 0F       		.byte	15
 2474 0182 02       		.byte	2
 2475 0183 C1       		.byte	-63
 2476 0184 AF       		.byte	-81
 2477 0185 BD       		.byte	-67
 2478 0186 03       		.byte	3
 2479 0187 01       		.byte	1
 2480 0188 13       		.byte	19
 2481 0189 8A       		.byte	-118
 2482 018a 6B       		.byte	107
 2483 018b 3A       		.byte	58
 2484 018c 91       		.byte	-111
 2485 018d 11       		.byte	17
 2486 018e 41       		.byte	65
 2487 018f 4F       		.byte	79
 2488 0190 67       		.byte	103
 2489 0191 DC       		.byte	-36
 2490 0192 EA       		.byte	-22
 2491 0193 97       		.byte	-105
 2492 0194 F2       		.byte	-14
 2493 0195 CF       		.byte	-49
 2494 0196 CE       		.byte	-50
 2495 0197 F0       		.byte	-16
 2496 0198 B4       		.byte	-76
 2497 0199 E6       		.byte	-26
 2498 019a 73       		.byte	115
 2499 019b 96       		.byte	-106
 2500 019c AC       		.byte	-84
 2501 019d 74       		.byte	116
 2502 019e 22       		.byte	34
 2503 019f E7       		.byte	-25
 2504 01a0 AD       		.byte	-83
 2505 01a1 35       		.byte	53
 2506 01a2 85       		.byte	-123
 2507 01a3 E2       		.byte	-30
 2508 01a4 F9       		.byte	-7
 2509 01a5 37       		.byte	55
 2510 01a6 E8       		.byte	-24
 2511 01a7 1C       		.byte	28
 2512 01a8 75       		.byte	117
 2513 01a9 DF       		.byte	-33
 2514 01aa 6E       		.byte	110
 2515 01ab 47       		.byte	71
 2516 01ac F1       		.byte	-15
 2517 01ad 1A       		.byte	26
 2518 01ae 71       		.byte	113
 2519 01af 1D       		.byte	29
 2520 01b0 29       		.byte	41
 2521 01b1 C5       		.byte	-59
 2522 01b2 89       		.byte	-119
 2523 01b3 6F       		.byte	111
 2524 01b4 B7       		.byte	-73
 2525 01b5 62       		.byte	98
 2526 01b6 0E       		.byte	14
 2527 01b7 AA       		.byte	-86
 2528 01b8 18       		.byte	24
 2529 01b9 BE       		.byte	-66
 2530 01ba 1B       		.byte	27
 2531 01bb FC       		.byte	-4
 2532 01bc 56       		.byte	86
 2533 01bd 3E       		.byte	62
 2534 01be 4B       		.byte	75
 2535 01bf C6       		.byte	-58
 2536 01c0 D2       		.byte	-46
 2537 01c1 79       		.byte	121
 2538 01c2 20       		.byte	32
 2539 01c3 9A       		.byte	-102
 2540 01c4 DB       		.byte	-37
 2541 01c5 C0       		.byte	-64
 2542 01c6 FE       		.byte	-2
 2543 01c7 78       		.byte	120
 2544 01c8 CD       		.byte	-51
 2545 01c9 5A       		.byte	90
 2546 01ca F4       		.byte	-12
 2547 01cb 1F       		.byte	31
 2548 01cc DD       		.byte	-35
 2549 01cd A8       		.byte	-88
 2550 01ce 33       		.byte	51
 2551 01cf 88       		.byte	-120
 2552 01d0 07       		.byte	7
 2553 01d1 C7       		.byte	-57
 2554 01d2 31       		.byte	49
 2555 01d3 B1       		.byte	-79
 2556 01d4 12       		.byte	18
 2557 01d5 10       		.byte	16
 2558 01d6 59       		.byte	89
 2559 01d7 27       		.byte	39
 2560 01d8 80       		.byte	-128
 2561 01d9 EC       		.byte	-20
 2562 01da 5F       		.byte	95
 2563 01db 60       		.byte	96
 2564 01dc 51       		.byte	81
 2565 01dd 7F       		.byte	127
 2566 01de A9       		.byte	-87
 2567 01df 19       		.byte	25
 2568 01e0 B5       		.byte	-75
 2569 01e1 4A       		.byte	74
 2570 01e2 0D       		.byte	13
 2571 01e3 2D       		.byte	45
 2572 01e4 E5       		.byte	-27
 2573 01e5 7A       		.byte	122
 2574 01e6 9F       		.byte	-97
 2575 01e7 93       		.byte	-109
 2576 01e8 C9       		.byte	-55
 2577 01e9 9C       		.byte	-100
 2578 01ea EF       		.byte	-17
 2579 01eb A0       		.byte	-96
 2580 01ec E0       		.byte	-32
 2581 01ed 3B       		.byte	59
 2582 01ee 4D       		.byte	77
 2583 01ef AE       		.byte	-82
 2584 01f0 2A       		.byte	42
 2585 01f1 F5       		.byte	-11
 2586 01f2 B0       		.byte	-80
 2587 01f3 C8       		.byte	-56
 2588 01f4 EB       		.byte	-21
 2589 01f5 BB       		.byte	-69
 2590 01f6 3C       		.byte	60
 2591 01f7 83       		.byte	-125
 2592 01f8 53       		.byte	83
 2593 01f9 99       		.byte	-103
 2594 01fa 61       		.byte	97
 2595 01fb 17       		.byte	23
 2596 01fc 2B       		.byte	43
 2597 01fd 04       		.byte	4
 2598 01fe 7E       		.byte	126
 2599 01ff BA       		.byte	-70
 2600 0200 77       		.byte	119
 2601 0201 D6       		.byte	-42
 2602 0202 26       		.byte	38
 2603 0203 E1       		.byte	-31
 2604 0204 69       		.byte	105
 2605 0205 14       		.byte	20
 2606 0206 63       		.byte	99
 2607 0207 55       		.byte	85
 2608 0208 21       		.byte	33
 2609 0209 0C       		.byte	12
 2610 020a 7D       		.byte	125
 2611              		.text
 2612              	.Letext0:
 2613              		.file 2 "../libraries/CC3000_Host_Driver/nvmem.h"